(lp0
(lp1
I0
aI0
aI0
aI0
aI0
aI0
aI0
aI0
aI0
aI0
aI0
aI0
aI0
aI0
aI0
aI0
aI0
aI0
aI0
aI0
aI0
aI0
aI0
aI0
aI0
aI0
aI0
aI0
aI0
aI0
aI0
aI0
aI0
aI0
aI0
aI0
aI0
aI0
aI0
aI0
aI0
aI0
aI0
aI0
aI0
aI0
aI0
aI0
aI0
aI0
aI0
aI0
aI0
aI0
aI0
aI0
aI0
aI0
aI0
aI0
aI0
aI0
aI0
aI0
aI0
aI0
aI0
aI0
aI0
aI0
aI0
aI0
aI0
aI0
aI0
aI0
aI0
aI0
aI0
aI0
aI0
aI0
aI0
aI0
aI0
aI0
aI0
aI0
aI0
aI0
aI0
aI0
aI0
aI0
aI0
aI0
aI0
aI0
aI0
aI0
aI0
aI0
aI0
aI0
aI0
aI0
aI0
aI0
aI0
aI0
aI0
aI0
aI0
aI0
aI0
aI0
aI0
aI0
aI0
aI0
aI0
aI0
aI0
aI0
aI0
aI0
aI0
aI0
aI0
aI0
aI0
aI0
aI0
aI0
aI0
aI0
aI0
aI0
aI0
aI0
aI0
aI0
aI0
aI0
aI0
aI0
aI0
aI0
aI0
aI0
aI0
aI0
aI0
aI0
aI0
aI0
aI0
aI0
aI0
aI0
aI0
aI0
aI0
aI0
aI0
aI0
aI0
aI0
aI0
aI0
aI0
aI0
aI0
aI0
aI0
aI0
aI0
aI0
aI0
aI0
aI0
aI0
aI0
aI0
aI0
aI0
aI0
aI0
aI0
aI0
aI0
aI0
aI0
aI0
aI0
aI0
aI0
aI0
aI0
aI0
aI0
aI0
aI0
aI0
aI0
aI0
aI0
aI0
aI0
aI0
aI0
aI0
aI0
aI0
aI0
aI0
aI0
aI0
aI0
aI0
aI0
aI0
aI0
aI0
aI0
aI0
aI0
aI0
aI0
aI0
aI0
aI0
aI0
aI0
aI0
aI0
aI0
aI0
aI0
aI0
aI0
aI0
aI0
aI0
aI0
aI0
aI0
aI0
aI0
aI0
aI0
aI0
aI0
aI0
aI0
aI0
aI0
aI0
aI0
aI0
aI0
aI0
aI0
aI0
aI0
aI0
aI0
aI0
aI0
aI0
aI0
aI0
aI0
aI0
aI0
aI0
aI0
aI0
aI0
aI0
aI0
aI0
aI0
aI0
aI0
aI0
aI0
aI0
aI0
aI0
aI0
aI0
aI0
aI0
aI0
aI0
aI0
aI0
aI0
aI0
aI0
aI0
aI0
aI0
aI0
aI0
aI0
aI0
aI0
aI0
aI0
aI0
aI0
aI0
aI0
aI0
aI0
aI0
aI0
aI0
aI0
aI0
aI0
aI0
aI0
aI0
aI0
aI0
aI0
aI0
aI0
aI0
aI0
aI0
aI0
aI0
aI0
aI0
aI0
aI0
aI0
aI0
aI0
aI0
aI0
aI0
aI0
aI0
aI0
aI0
aI0
aI0
aI0
aI0
aI0
aI0
aI0
aI0
aI0
aI0
aI0
aI0
aI0
aI0
aI0
aI0
aI0
aI0
aI0
aI0
aI0
aI0
aI0
aI0
aI0
aI0
aI0
aI0
aI0
aI0
aI0
aI0
aI0
aI0
aI0
aI0
aI0
aI0
aI0
aI0
aI0
aI0
aI0
aI0
aI0
aI0
aI0
aI0
aI0
aI0
aI0
aI0
aI0
aI0
aI0
aI0
aI0
aI0
aI0
aI0
aI0
aI0
aI0
aI0
aI0
aI0
aI0
aI0
aI0
aI0
aI0
aI0
aI0
aI0
aI0
aI0
aI0
aI0
aI0
aI0
aI0
aI0
aI0
aI0
aI0
aI0
aI0
aI0
aI0
aI0
aI0
aI0
aI0
aI0
aI0
aI0
aI0
aI0
aI0
aI0
aI0
aI0
aI0
aI0
aI0
aI0
aI0
aI0
aI0
aI0
aI0
aI0
aI0
aI0
aI0
aI0
aI0
aI0
aI0
aI0
aI0
aI0
aI0
aI0
aI0
aI0
aI0
aI0
aI0
aI0
aI0
aI0
aI0
aI0
aI0
aI0
aI0
aI0
aI0
aI0
aI0
aI0
aI0
aI0
aI0
aI0
aI0
aI0
aI0
aI0
aI0
aI0
aI0
aI0
aI0
aI0
aI0
aI0
aI0
aI0
aI0
aI0
aI0
aI0
aI0
aI0
aI0
aI0
aI0
aI0
aI0
aI0
aI0
aI0
aI0
aI0
aI0
aI0
aI0
aI0
aI0
aI0
aI0
aI0
aI0
aI0
aI0
aI0
aI0
aI0
aI0
aI0
aI0
aI0
aI0
aI0
aI0
aI0
aI0
aI0
aI0
aI0
aI0
aI0
aI0
aI0
aI0
aI0
aI0
aI0
aI0
aI0
aI0
aI0
aI0
aI0
aI0
aI0
aI0
aI0
aI0
aI0
aI0
aI0
aI0
aI0
aI0
aI0
aI0
aI0
aI0
aI0
aI0
aI0
aI0
aI0
aI0
aI0
aI0
aI0
aI0
aI0
aI0
aI0
aI0
aI0
aI0
aI0
aI0
aI0
aI0
aI0
aI0
aI0
aI0
aI0
aI0
aI0
aI0
aI0
aI0
aI0
aI0
aI0
aI0
aI0
aI0
aI0
aI0
aI0
aI0
aI0
aI0
aI0
aI0
aI0
aI0
aI0
aI0
aI0
aI0
aI0
aI0
aI0
aI0
aI0
aI0
aI0
aI0
aI0
aI0
aI0
aI0
aI0
aI0
aI0
aI0
aI0
aI0
aI0
aI0
aI0
aI0
aI0
aI0
aI0
aI0
aI0
aI0
aI0
aI0
aI0
aI0
aI0
aI0
aI0
aI0
aI0
aI0
aI0
aI0
aI0
aI0
aI0
aI0
aI0
aI0
aI0
aI0
aI0
aI0
aI0
aI0
aI0
aI0
aI0
aI0
aI0
aI0
aI0
aI0
aI0
aI0
aI0
aI0
aI0
aI0
aI0
aI0
aI0
aI0
aI0
aI0
aI0
aI0
aI0
aI0
aI0
aI0
aI0
aI0
aI0
aI0
aI0
aI0
aI0
aI0
aI0
aI0
aI0
aI0
aI0
aI0
aI0
aI0
aI0
aI0
aI0
aI0
aI0
aI0
aI0
aI0
aI0
aI0
aI0
aI0
aI0
aI0
aI0
aI0
aI0
aI0
aI0
aI0
aI0
aI0
aI0
aI0
aI0
aI0
aI0
aI0
aI0
aI0
aI0
aI0
aI0
aI0
aI0
aI0
aI0
aI0
aI0
aI0
aI0
aI0
aI0
aI0
aI0
aI0
aI0
aI0
aI0
aI0
aI0
aI0
aI0
aI0
aI0
aI0
aI0
aI0
aI0
aI0
aI0
aI0
aI0
aI0
aI0
aI0
aI0
aI0
aI0
aI0
aI0
aI0
aI0
aI0
aI0
aI0
aI0
aI0
aI0
aI0
aI0
aI0
aI0
aI0
aI0
aI0
aI0
aI0
aI0
aI0
aI0
aI0
aI0
aI0
aI0
aI0
aI0
aI0
aI0
aI0
aI0
aI0
aI0
aI0
aI0
aI0
aI0
aI0
aI0
aI0
aI0
aI0
aI0
aI0
aI0
aI0
aI0
aI0
aI0
aI0
aI0
aI0
aI0
aI0
aI0
aI0
aI0
aI0
aI0
aI0
aI0
aI0
aI0
aI0
aI0
aI0
aI0
aI0
aI0
aI0
aI0
aI0
aI0
aI0
aI0
aI0
aI0
aI0
aI0
aI0
aI0
aI0
aI0
aI0
aI0
aI0
aI0
aI0
aI0
aI0
aI0
aI0
aI0
aI0
aI0
aI0
aI0
aI0
aI0
aI0
aI0
aI0
aI0
aI0
aI0
aI0
aI0
aI0
aI0
aI0
aI0
aI0
aI0
aI0
aI0
aI0
aI0
aI0
aI0
aI0
aI0
aI0
aI0
aI0
aI0
aI0
aI0
aI0
aI0
aI0
aI0
aI0
aI0
aI0
aI0
aI0
aI0
aI0
aI0
aI0
aI0
aI0
aI0
aI0
aI0
aI0
aI0
aI0
aI0
aI0
aI0
aI0
aI0
aI0
aI0
aI0
aI0
aI0
aI0
aI0
aI0
aI0
aI0
aI0
aI0
aI0
aI0
aI0
aI0
aI0
aI0
aI0
aI0
aI0
aI0
aI0
aI0
aI0
aI0
aI0
aI0
aI0
aI0
aI0
aI0
aI0
aI0
aI0
aI0
aI0
aa(lp2
I1
aI1
aI1
aI1
aI1
aI1
aI1
aI1
aI1
aI1
aI1
aI1
aI1
aI1
aI1
aI1
aI1
aI1
aI1
aI1
aI1
aI1
aI1
aI1
aI1
aI1
aI1
aI1
aI1
aI1
aI1
aI1
aI1
aI1
aI1
aI1
aI1
aI1
aI1
aI1
aI1
aI1
aI1
aI1
aI1
aI1
aI1
aI1
aI1
aI1
aI1
aI1
aI1
aI1
aI1
aI1
aI1
aI1
aI1
aI1
aI1
aI1
aI1
aI1
aI1
aI1
aI1
aI1
aI1
aI1
aI1
aI1
aI1
aI1
aI1
aI1
aI1
aI1
aI1
aI1
aI1
aI1
aI1
aI1
aI1
aI1
aI1
aI1
aI1
aI1
aI1
aI1
aI1
aI1
aI1
aI1
aI1
aI1
aI1
aI1
aI1
aI1
aI1
aI1
aI1
aI1
aI1
aI1
aI1
aI1
aI1
aI1
aI1
aI1
aI1
aI1
aI1
aI1
aI1
aI1
aI1
aI1
aI1
aI1
aI1
aI1
aI1
aI1
aI1
aI1
aI1
aI1
aI1
aI1
aI1
aI1
aI1
aI1
aI1
aI1
aI1
aI1
aI1
aI1
aI1
aI1
aI1
aI1
aI1
aI1
aI1
aI1
aI1
aI1
aI1
aI1
aI1
aI1
aI1
aI1
aI1
aI1
aI1
aI1
aI1
aI1
aI1
aI1
aI1
aI1
aI1
aI1
aI1
aI1
aI1
aI1
aI1
aI1
aI1
aI1
aI1
aI1
aI1
aI1
aI1
aI1
aI1
aI1
aI1
aI1
aI1
aI1
aI1
aI1
aI1
aI1
aI1
aI1
aI1
aI1
aI1
aI1
aI1
aI1
aI1
aI1
aI1
aI1
aI1
aI1
aI1
aI1
aI1
aI1
aI1
aI1
aI1
aI1
aI1
aI1
aI1
aI1
aI1
aI1
aI1
aI1
aI1
aI1
aI1
aI1
aI1
aI1
aI1
aI1
aI1
aI1
aI1
aI1
aI1
aI1
aI1
aI1
aI1
aI1
aI1
aI1
aI1
aI1
aI1
aI1
aI1
aI1
aI1
aI1
aI1
aI1
aI1
aI1
aI1
aI1
aI1
aI1
aI1
aI1
aI1
aI1
aI1
aI1
aI1
aI1
aI1
aI1
aI1
aI1
aI1
aI1
aI1
aI1
aI1
aI1
aI1
aI1
aI1
aI1
aI1
aI1
aI1
aI1
aI1
aI1
aI1
aI1
aI1
aI1
aI1
aI1
aI1
aI1
aI1
aI1
aI1
aI1
aI1
aI1
aI1
aI1
aI1
aI1
aI1
aI1
aI1
aI1
aI1
aI1
aI1
aI1
aI1
aI1
aI1
aI1
aI1
aI1
aI1
aI1
aI1
aI1
aI1
aI1
aI1
aI1
aI1
aI1
aI1
aI1
aI1
aI1
aI1
aI1
aI1
aI1
aI1
aI1
aI1
aI1
aI1
aI1
aI1
aI1
aI1
aI1
aI1
aI1
aI1
aI1
aI1
aI1
aI1
aI1
aI1
aI1
aI1
aI1
aI1
aI1
aI1
aI1
aI1
aI1
aI1
aI1
aI1
aI1
aI1
aI1
aI1
aI1
aI1
aI1
aI1
aI1
aI1
aI1
aI1
aI1
aI1
aI1
aI1
aI1
aI1
aI1
aI1
aI1
aI1
aI1
aI1
aI1
aI1
aI1
aI1
aI1
aI1
aI1
aI1
aI1
aI1
aI1
aI1
aI1
aI1
aI1
aI1
aI1
aI1
aI1
aI1
aI1
aI1
aI1
aI1
aI1
aI1
aI1
aI1
aI1
aI1
aI1
aI1
aI1
aI1
aI1
aI1
aI1
aI1
aI1
aI1
aI1
aI1
aI1
aI1
aI1
aI1
aI1
aI1
aI1
aI1
aI1
aI1
aI1
aI1
aI1
aI1
aI1
aI1
aI1
aI1
aI1
aI1
aI1
aI1
aI1
aI1
aI1
aI1
aI1
aI1
aI1
aI1
aI1
aI1
aI1
aI1
aI1
aI1
aI1
aI1
aI1
aI1
aI1
aI1
aI1
aI1
aI1
aI1
aI1
aI1
aI1
aI1
aI1
aI1
aI1
aI1
aI1
aI1
aI1
aI1
aI1
aI1
aI1
aI1
aI1
aI1
aI1
aI1
aI1
aI1
aI1
aI1
aI1
aI1
aI1
aI1
aI1
aI1
aI1
aI1
aI1
aI1
aI1
aI1
aI1
aI1
aI1
aI1
aI1
aI1
aI1
aI1
aI1
aI1
aI1
aI1
aI1
aI1
aI1
aI1
aI1
aI1
aI1
aI1
aI1
aI1
aI1
aI1
aI1
aI1
aI1
aI1
aI1
aI1
aI1
aI1
aI1
aI1
aI1
aI1
aI1
aI1
aI1
aI1
aI1
aI1
aI1
aI1
aI1
aI1
aI1
aI1
aI1
aI1
aI1
aI1
aI1
aI1
aI1
aI1
aI1
aI1
aI1
aI1
aI1
aI1
aI1
aI1
aI1
aI1
aI1
aI1
aI1
aI1
aI1
aI1
aI1
aI1
aI1
aI1
aI1
aI1
aI1
aI1
aI1
aI1
aI1
aI1
aI1
aI1
aI1
aI1
aI1
aI1
aI1
aI1
aI1
aI1
aI1
aI1
aI1
aI1
aI1
aI1
aI1
aI1
aI1
aI1
aI1
aI1
aI1
aI1
aI1
aI1
aI1
aI1
aI1
aI1
aI1
aI1
aI1
aI1
aI1
aI1
aI1
aI1
aI1
aI1
aI1
aI1
aI1
aI1
aI1
aI1
aI1
aI1
aI1
aI1
aI1
aI1
aI1
aI1
aI1
aI1
aI1
aI1
aI1
aI1
aI1
aI1
aI1
aI1
aI1
aI1
aI1
aI1
aI1
aI1
aI1
aI1
aI1
aI1
aI1
aI1
aI1
aI1
aI1
aI1
aI1
aI1
aI1
aI1
aI1
aI1
aI1
aI1
aI1
aI1
aI1
aI1
aI1
aI1
aI1
aI1
aI1
aI1
aI1
aI1
aI1
aI1
aI1
aI1
aI1
aI1
aI1
aI1
aI1
aI1
aI1
aI1
aI1
aI1
aI1
aI1
aI1
aI1
aI1
aI1
aI1
aI1
aI1
aI1
aI1
aI1
aI1
aI1
aI1
aI1
aI1
aI1
aI1
aI1
aI1
aI1
aI1
aI1
aI1
aI1
aI1
aI1
aI1
aI1
aI1
aI1
aI1
aI1
aI1
aI1
aI1
aI1
aI1
aI1
aI1
aI1
aI1
aI1
aI1
aI1
aI1
aI1
aI1
aI1
aI1
aI1
aI1
aI1
aI1
aI1
aI1
aI1
aI1
aI1
aI1
aI1
aI1
aI1
aI1
aI1
aI1
aI1
aI1
aI1
aI1
aI1
aI1
aI1
aI1
aI1
aI1
aI1
aI1
aI1
aI1
aI1
aI1
aI1
aI1
aI1
aI1
aI1
aI1
aI1
aI1
aI1
aI1
aI1
aI1
aI1
aI1
aI1
aI1
aI1
aI1
aI1
aI1
aI1
aI1
aI1
aI1
aI1
aI1
aI1
aI1
aI1
aI1
aI1
aI1
aI1
aI1
aI1
aI1
aI1
aI1
aI1
aI1
aI1
aI1
aI1
aI1
aI1
aI1
aI1
aI1
aI1
aI1
aI1
aI1
aI1
aI1
aI1
aI1
aI1
aI1
aI1
aI1
aI1
aI1
aI1
aI1
aI1
aI1
aI1
aI1
aI1
aI1
aI1
aI1
aI1
aI1
aI1
aI1
aI1
aI1
aI1
aI1
aI1
aI1
aI1
aI1
aI1
aI1
aI1
aI1
aI1
aI1
aI1
aI1
aI1
aI1
aI1
aI1
aI1
aI1
aI1
aI1
aI1
aI1
aI1
aI1
aI1
aI1
aI1
aI1
aI1
aI1
aI1
aI1
aI1
aI1
aI1
aI1
aI1
aI1
aI1
aI1
aI1
aI1
aI1
aI1
aI1
aI1
aI1
aI1
aI1
aI1
aI1
aI1
aI1
aI1
aI1
aI1
aI1
aI1
aI1
aI1
aI1
aI1
aI1
aI1
aI1
aI1
aI1
aI1
aI1
aI1
aI1
aI1
aI1
aI1
aI1
aI1
aI1
aI1
aI1
aI1
aI1
aI1
aI1
aI1
aI1
aI1
aI1
aI1
aI1
aI1
aI1
aI1
aI1
aI1
aI1
aI1
aI1
aI1
aI1
aI1
aI1
aI1
aI1
aI1
aI1
aI1
aI1
aI1
aI1
aI1
aI1
aI1
aI1
aI1
aI1
aI1
aI1
aI1
aI1
aI1
aI1
aI1
aI1
aI1
aI1
aI1
aI1
aI1
aI1
aI1
aI1
aI1
aI1
aI1
aI1
aI1
aI1
aI1
aI1
aI1
aI1
aI1
aI1
aI1
aI1
aI1
aI1
aI1
aI1
aa(lp3
I2
aI2
aI2
aI2
aI2
aI2
aI2
aI2
aI2
aI2
aI2
aI2
aI2
aI2
aI2
aI2
aI2
aI2
aI2
aI2
aI2
aI2
aI2
aI2
aI2
aI2
aI2
aI2
aI2
aI2
aI2
aI2
aI2
aI2
aI2
aI2
aI2
aI2
aI2
aI2
aI2
aI2
aI2
aI2
aI2
aI2
aI2
aI2
aI2
aI2
aI2
aI2
aI2
aI2
aI2
aI2
aI2
aI2
aI2
aI2
aI2
aI2
aI2
aI2
aI2
aI2
aI2
aI2
aI2
aI2
aI2
aI2
aI2
aI2
aI2
aI2
aI2
aI2
aI2
aI2
aI2
aI2
aI2
aI2
aI2
aI2
aI2
aI2
aI2
aI2
aI2
aI2
aI2
aI2
aI2
aI2
aI2
aI2
aI2
aI2
aI2
aI2
aI2
aI2
aI2
aI2
aI2
aI2
aI2
aI2
aI2
aI2
aI2
aI2
aI2
aI2
aI2
aI2
aI2
aI2
aI2
aI2
aI2
aI2
aI2
aI2
aI2
aI2
aI2
aI2
aI2
aI2
aI2
aI2
aI2
aI2
aI2
aI2
aI2
aI2
aI2
aI2
aI2
aI2
aI2
aI2
aI2
aI2
aI2
aI2
aI2
aI2
aI2
aI2
aI2
aI2
aI2
aI2
aI2
aI2
aI2
aI2
aI2
aI2
aI2
aI2
aI2
aI2
aI2
aI2
aI2
aI2
aI2
aI2
aI2
aI2
aI2
aI2
aI2
aI2
aI2
aI2
aI2
aI2
aI2
aI2
aI2
aI2
aI2
aI2
aI2
aI2
aI2
aI2
aI2
aI2
aI2
aI2
aI2
aI2
aI2
aI2
aI2
aI2
aI2
aI2
aI2
aI2
aI2
aI2
aI2
aI2
aI2
aI2
aI2
aI2
aI2
aI2
aI2
aI2
aI2
aI2
aI2
aI2
aI2
aI2
aI2
aI2
aI2
aI2
aI2
aI2
aI2
aI2
aI2
aI2
aI2
aI2
aI2
aI2
aI2
aI2
aI2
aI2
aI2
aI2
aI2
aI2
aI2
aI2
aI2
aI2
aI2
aI2
aI2
aI2
aI2
aI2
aI2
aI2
aI2
aI2
aI2
aI2
aI2
aI2
aI2
aI2
aI2
aI2
aI2
aI2
aI2
aI2
aI2
aI2
aI2
aI2
aI2
aI2
aI2
aI2
aI2
aI2
aI2
aI2
aI2
aI2
aI2
aI2
aI2
aI2
aI2
aI2
aI2
aI2
aI2
aI2
aI2
aI2
aI2
aI2
aI2
aI2
aI2
aI2
aI2
aI2
aI2
aI2
aI2
aI2
aI2
aI2
aI2
aI2
aI2
aI2
aI2
aI2
aI2
aI2
aI2
aI2
aI2
aI2
aI2
aI2
aI2
aI2
aI2
aI2
aI2
aI2
aI2
aI2
aI2
aI2
aI2
aI2
aI2
aI2
aI2
aI2
aI2
aI2
aI2
aI2
aI2
aI2
aI2
aI2
aI2
aI2
aI2
aI2
aI2
aI2
aI2
aI2
aI2
aI2
aI2
aI2
aI2
aI2
aI2
aI2
aI2
aI2
aI2
aI2
aI2
aI2
aI2
aI2
aI2
aI2
aI2
aI2
aI2
aI2
aI2
aI2
aI2
aI2
aI2
aI2
aI2
aI2
aI2
aI2
aI2
aI2
aI2
aI2
aI2
aI2
aI2
aI2
aI2
aI2
aI2
aI2
aI2
aI2
aI2
aI2
aI2
aI2
aI2
aI2
aI2
aI2
aI2
aI2
aI2
aI2
aI2
aI2
aI2
aI2
aI2
aI2
aI2
aI2
aI2
aI2
aI2
aI2
aI2
aI2
aI2
aI2
aI2
aI2
aI2
aI2
aI2
aI2
aI2
aI2
aI2
aI2
aI2
aI2
aI2
aI2
aI2
aI2
aI2
aI2
aI2
aI2
aI2
aI2
aI2
aI2
aI2
aI2
aI2
aI2
aI2
aI2
aI2
aI2
aI2
aI2
aI2
aI2
aI2
aI2
aI2
aI2
aI2
aI2
aI2
aI2
aI2
aI2
aI2
aI2
aI2
aI2
aI2
aI2
aI2
aI2
aI2
aI2
aI2
aI2
aI2
aI2
aI2
aI2
aI2
aI2
aI2
aI2
aI2
aI2
aI2
aI2
aI2
aI2
aI2
aI2
aI2
aI2
aI2
aI2
aI2
aI2
aI2
aI2
aI2
aI2
aI2
aI2
aI2
aI2
aI2
aI2
aI2
aI2
aI2
aI2
aI2
aI2
aI2
aI2
aI2
aI2
aI2
aI2
aI2
aI2
aI2
aI2
aI2
aI2
aI2
aI2
aI2
aI2
aI2
aI2
aI2
aI2
aI2
aI2
aI2
aI2
aI2
aI2
aI2
aI2
aI2
aI2
aI2
aI2
aI2
aI2
aI2
aI2
aI2
aI2
aI2
aI2
aI2
aI2
aI2
aI2
aI2
aI2
aI2
aI2
aI2
aI2
aI2
aI2
aI2
aI2
aI2
aI2
aI2
aI2
aI2
aI2
aI2
aI2
aI2
aI2
aI2
aI2
aI2
aI2
aI2
aI2
aI2
aI2
aI2
aI2
aI2
aI2
aI2
aI2
aI2
aI2
aI2
aI2
aI2
aI2
aI2
aI2
aI2
aI2
aI2
aI2
aI2
aI2
aI2
aI2
aI2
aI2
aI2
aI2
aI2
aI2
aI2
aI2
aI2
aI2
aI2
aI2
aI2
aI2
aI2
aI2
aI2
aI2
aI2
aI2
aI2
aI2
aI2
aI2
aI2
aI2
aI2
aI2
aI2
aI2
aI2
aI2
aI2
aI2
aI2
aI2
aI2
aI2
aI2
aI2
aI2
aI2
aI2
aI2
aI2
aI2
aI2
aI2
aI2
aI2
aI2
aI2
aI2
aI2
aI2
aI2
aI2
aI2
aI2
aI2
aI2
aI2
aI2
aI2
aI2
aI2
aI2
aI2
aI2
aI2
aI2
aI2
aI2
aI2
aI2
aI2
aI2
aI2
aI2
aI2
aI2
aI2
aI2
aI2
aI2
aI2
aI2
aI2
aI2
aI2
aI2
aI2
aI2
aI2
aI2
aI2
aI2
aI2
aI2
aI2
aI2
aI2
aI2
aI2
aI2
aI2
aI2
aI2
aI2
aI2
aI2
aI2
aI2
aI2
aI2
aI2
aI2
aI2
aI2
aI2
aI2
aI2
aI2
aI2
aI2
aI2
aI2
aI2
aI2
aI2
aI2
aI2
aI2
aI2
aI2
aI2
aI2
aI2
aI2
aI2
aI2
aI2
aI2
aI2
aI2
aI2
aI2
aI2
aI2
aI2
aI2
aI2
aI2
aI2
aI2
aI2
aI2
aI2
aI2
aI2
aI2
aI2
aI2
aI2
aI2
aI2
aI2
aI2
aI2
aI2
aI2
aI2
aI2
aI2
aI2
aI2
aI2
aI2
aI2
aI2
aI2
aI2
aI2
aI2
aI2
aI2
aI2
aI2
aI2
aI2
aI2
aI2
aI2
aI2
aI2
aI2
aI2
aI2
aI2
aI2
aI2
aI2
aI2
aI2
aI2
aI2
aI2
aI2
aI2
aI2
aI2
aI2
aI2
aI2
aI2
aI2
aI2
aI2
aI2
aI2
aI2
aI2
aI2
aI2
aI2
aI2
aI2
aI2
aI2
aI2
aI2
aI2
aI2
aI2
aI2
aI2
aI2
aI2
aI2
aI2
aI2
aI2
aI2
aI2
aI2
aI2
aI2
aI2
aI2
aI2
aI2
aI2
aI2
aI2
aI2
aI2
aI2
aI2
aI2
aI2
aI2
aI2
aI2
aI2
aI2
aI2
aI2
aI2
aI2
aI2
aI2
aI2
aI2
aI2
aI2
aI2
aI2
aI2
aI2
aI2
aI2
aI2
aI2
aI2
aI2
aI2
aI2
aI2
aI2
aI2
aI2
aI2
aI2
aI2
aI2
aI2
aI2
aI2
aI2
aI2
aI2
aI2
aI2
aI2
aI2
aI2
aI2
aI2
aI2
aI2
aI2
aI2
aI2
aI2
aI2
aI2
aI2
aI2
aI2
aI2
aI2
aI2
aI2
aI2
aI2
aI2
aI2
aI2
aI2
aI2
aI2
aI2
aI2
aI2
aI2
aI2
aI2
aI2
aI2
aI2
aI2
aI2
aI2
aI2
aI2
aI2
aI2
aI2
aI2
aI2
aI2
aI2
aI2
aI2
aI2
aI2
aI2
aI2
aI2
aI2
aI2
aI2
aa(lp4
I3
aI3
aI3
aI3
aI3
aI3
aI3
aI3
aI3
aI3
aI3
aI3
aI3
aI3
aI3
aI3
aI3
aI3
aI3
aI3
aI3
aI3
aI3
aI3
aI3
aI3
aI3
aI3
aI3
aI3
aI3
aI3
aI3
aI3
aI3
aI3
aI3
aI3
aI3
aI3
aI3
aI3
aI3
aI3
aI3
aI3
aI3
aI3
aI3
aI3
aI3
aI3
aI3
aI3
aI3
aI3
aI3
aI3
aI3
aI3
aI3
aI3
aI3
aI3
aI3
aI3
aI3
aI3
aI3
aI3
aI3
aI3
aI3
aI3
aI3
aI3
aI3
aI3
aI3
aI3
aI3
aI3
aI3
aI3
aI3
aI3
aI3
aI3
aI3
aI3
aI3
aI3
aI3
aI3
aI3
aI3
aI3
aI3
aI3
aI3
aI3
aI3
aI3
aI3
aI3
aI3
aI3
aI3
aI3
aI3
aI3
aI3
aI3
aI3
aI3
aI3
aI3
aI3
aI3
aI3
aI3
aI3
aI3
aI3
aI3
aI3
aI3
aI3
aI3
aI3
aI3
aI3
aI3
aI3
aI3
aI3
aI3
aI3
aI3
aI3
aI3
aI3
aI3
aI3
aI3
aI3
aI3
aI3
aI3
aI3
aI3
aI3
aI3
aI3
aI3
aI3
aI3
aI3
aI3
aI3
aI3
aI3
aI3
aI3
aI3
aI3
aI3
aI3
aI3
aI3
aI3
aI3
aI3
aI3
aI3
aI3
aI3
aI3
aI3
aI3
aI3
aI3
aI3
aI3
aI3
aI3
aI3
aI3
aI3
aI3
aI3
aI3
aI3
aI3
aI3
aI3
aI3
aI3
aI3
aI3
aI3
aI3
aI3
aI3
aI3
aI3
aI3
aI3
aI3
aI3
aI3
aI3
aI3
aI3
aI3
aI3
aI3
aI3
aI3
aI3
aI3
aI3
aI3
aI3
aI3
aI3
aI3
aI3
aI3
aI3
aI3
aI3
aI3
aI3
aI3
aI3
aI3
aI3
aI3
aI3
aI3
aI3
aI3
aI3
aI3
aI3
aI3
aI3
aI3
aI3
aI3
aI3
aI3
aI3
aI3
aI3
aI3
aI3
aI3
aI3
aI3
aI3
aI3
aI3
aI3
aI3
aI3
aI3
aI3
aI3
aI3
aI3
aI3
aI3
aI3
aI3
aI3
aI3
aI3
aI3
aI3
aI3
aI3
aI3
aI3
aI3
aI3
aI3
aI3
aI3
aI3
aI3
aI3
aI3
aI3
aI3
aI3
aI3
aI3
aI3
aI3
aI3
aI3
aI3
aI3
aI3
aI3
aI3
aI3
aI3
aI3
aI3
aI3
aI3
aI3
aI3
aI3
aI3
aI3
aI3
aI3
aI3
aI3
aI3
aI3
aI3
aI3
aI3
aI3
aI3
aI3
aI3
aI3
aI3
aI3
aI3
aI3
aI3
aI3
aI3
aI3
aI3
aI3
aI3
aI3
aI3
aI3
aI3
aI3
aI3
aI3
aI3
aI3
aI3
aI3
aI3
aI3
aI3
aI3
aI3
aI3
aI3
aI3
aI3
aI3
aI3
aI3
aI3
aI3
aI3
aI3
aI3
aI3
aI3
aI3
aI3
aI3
aI3
aI3
aI3
aI3
aI3
aI3
aI3
aI3
aI3
aI3
aI3
aI3
aI3
aI3
aI3
aI3
aI3
aI3
aI3
aI3
aI3
aI3
aI3
aI3
aI3
aI3
aI3
aI3
aI3
aI3
aI3
aI3
aI3
aI3
aI3
aI3
aI3
aI3
aI3
aI3
aI3
aI3
aI3
aI3
aI3
aI3
aI3
aI3
aI3
aI3
aI3
aI3
aI3
aI3
aI3
aI3
aI3
aI3
aI3
aI3
aI3
aI3
aI3
aI3
aI3
aI3
aI3
aI3
aI3
aI3
aI3
aI3
aI3
aI3
aI3
aI3
aI3
aI3
aI3
aI3
aI3
aI3
aI3
aI3
aI3
aI3
aI3
aI3
aI3
aI3
aI3
aI3
aI3
aI3
aI3
aI3
aI3
aI3
aI3
aI3
aI3
aI3
aI3
aI3
aI3
aI3
aI3
aI3
aI3
aI3
aI3
aI3
aI3
aI3
aI3
aI3
aI3
aI3
aI3
aI3
aI3
aI3
aI3
aI3
aI3
aI3
aI3
aI3
aI3
aI3
aI3
aI3
aI3
aI3
aI3
aI3
aI3
aI3
aI3
aI3
aI3
aI3
aI3
aI3
aI3
aI3
aI3
aI3
aI3
aI3
aI3
aI3
aI3
aI3
aI3
aI3
aI3
aI3
aI3
aI3
aI3
aI3
aI3
aI3
aI3
aI3
aI3
aI3
aI3
aI3
aI3
aI3
aI3
aI3
aI3
aI3
aI3
aI3
aI3
aI3
aI3
aI3
aI3
aI3
aI3
aI3
aI3
aI3
aI3
aI3
aI3
aI3
aI3
aI3
aI3
aI3
aI3
aI3
aI3
aI3
aI3
aI3
aI3
aI3
aI3
aI3
aI3
aI3
aI3
aI3
aI3
aI3
aI3
aI3
aI3
aI3
aI3
aI3
aI3
aI3
aI3
aI3
aI3
aI3
aI3
aI3
aI3
aI3
aI3
aI3
aI3
aI3
aI3
aI3
aI3
aI3
aI3
aI3
aI3
aI3
aI3
aI3
aI3
aI3
aI3
aI3
aI3
aI3
aI3
aI3
aI3
aI3
aI3
aI3
aI3
aI3
aI3
aI3
aI3
aI3
aI3
aI3
aI3
aI3
aI3
aI3
aI3
aI3
aI3
aI3
aI3
aI3
aI3
aI3
aI3
aI3
aI3
aI3
aI3
aI3
aI3
aI3
aI3
aI3
aI3
aI3
aI3
aI3
aI3
aI3
aI3
aI3
aI3
aI3
aI3
aI3
aI3
aI3
aI3
aI3
aI3
aI3
aI3
aI3
aI3
aI3
aI3
aI3
aI3
aI3
aI3
aI3
aI3
aI3
aI3
aI3
aI3
aI3
aI3
aI3
aI3
aI3
aI3
aI3
aI3
aI3
aI3
aI3
aI3
aI3
aI3
aI3
aI3
aI3
aI3
aI3
aI3
aI3
aI3
aI3
aI3
aI3
aI3
aI3
aI3
aI3
aI3
aI3
aI3
aI3
aI3
aI3
aI3
aI3
aI3
aI3
aI3
aI3
aI3
aI3
aI3
aI3
aI3
aI3
aI3
aI3
aI3
aI3
aI3
aI3
aI3
aI3
aI3
aI3
aI3
aI3
aI3
aI3
aI3
aI3
aI3
aI3
aI3
aI3
aI3
aI3
aI3
aI3
aI3
aI3
aI3
aI3
aI3
aI3
aI3
aI3
aI3
aI3
aI3
aI3
aI3
aI3
aI3
aI3
aI3
aI3
aI3
aI3
aI3
aI3
aI3
aI3
aI3
aI3
aI3
aI3
aI3
aI3
aI3
aI3
aI3
aI3
aI3
aI3
aI3
aI3
aI3
aI3
aI3
aI3
aI3
aI3
aI3
aI3
aI3
aI3
aI3
aI3
aI3
aI3
aI3
aI3
aI3
aI3
aI3
aI3
aI3
aI3
aI3
aI3
aI3
aI3
aI3
aI3
aI3
aI3
aI3
aI3
aI3
aI3
aI3
aI3
aI3
aI3
aI3
aI3
aI3
aI3
aI3
aI3
aI3
aI3
aI3
aI3
aI3
aI3
aI3
aI3
aI3
aI3
aI3
aI3
aI3
aI3
aI3
aI3
aI3
aI3
aI3
aI3
aI3
aI3
aI3
aI3
aI3
aI3
aI3
aI3
aI3
aI3
aI3
aI3
aI3
aI3
aI3
aI3
aI3
aI3
aI3
aI3
aI3
aI3
aI3
aI3
aI3
aI3
aI3
aI3
aI3
aI3
aI3
aI3
aI3
aI3
aI3
aI3
aI3
aI3
aI3
aI3
aI3
aI3
aI3
aI3
aI3
aI3
aI3
aI3
aI3
aI3
aI3
aI3
aI3
aI3
aI3
aI3
aI3
aI3
aI3
aI3
aI3
aI3
aI3
aI3
aI3
aI3
aI3
aI3
aI3
aI3
aI3
aI3
aI3
aI3
aI3
aI3
aI3
aI3
aI3
aI3
aI3
aI3
aI3
aI3
aI3
aI3
aI3
aI3
aI3
aI3
aI3
aI3
aI3
aI3
aI3
aI3
aI3
aI3
aI3
aI3
aI3
aI3
aI3
aI3
aI3
aI3
aI3
aI3
aI3
aI3
aI3
aI3
aI3
aI3
aI3
aI3
aI3
aI3
aa(lp5
I4
aI4
aI4
aI4
aI4
aI4
aI4
aI4
aI4
aI4
aI4
aI4
aI4
aI4
aI4
aI4
aI4
aI4
aI4
aI4
aI4
aI4
aI4
aI4
aI4
aI4
aI4
aI4
aI4
aI4
aI4
aI4
aI4
aI4
aI4
aI4
aI4
aI4
aI4
aI4
aI4
aI4
aI4
aI4
aI4
aI4
aI4
aI4
aI4
aI4
aI4
aI4
aI4
aI4
aI4
aI4
aI4
aI4
aI4
aI4
aI4
aI4
aI4
aI4
aI4
aI4
aI4
aI4
aI4
aI4
aI4
aI4
aI4
aI4
aI4
aI4
aI4
aI4
aI4
aI4
aI4
aI4
aI4
aI4
aI4
aI4
aI4
aI4
aI4
aI4
aI4
aI4
aI4
aI4
aI4
aI4
aI4
aI4
aI4
aI4
aI4
aI4
aI4
aI4
aI4
aI4
aI4
aI4
aI4
aI4
aI4
aI4
aI4
aI4
aI4
aI4
aI4
aI4
aI4
aI4
aI4
aI4
aI4
aI4
aI4
aI4
aI4
aI4
aI4
aI4
aI4
aI4
aI4
aI4
aI4
aI4
aI4
aI4
aI4
aI4
aI4
aI4
aI4
aI4
aI4
aI4
aI4
aI4
aI4
aI4
aI4
aI4
aI4
aI4
aI4
aI4
aI4
aI4
aI4
aI4
aI4
aI4
aI4
aI4
aI4
aI4
aI4
aI4
aI4
aI4
aI4
aI4
aI4
aI4
aI4
aI4
aI4
aI4
aI4
aI4
aI4
aI4
aI4
aI4
aI4
aI4
aI4
aI4
aI4
aI4
aI4
aI4
aI4
aI4
aI4
aI4
aI4
aI4
aI4
aI4
aI4
aI4
aI4
aI4
aI4
aI4
aI4
aI4
aI4
aI4
aI4
aI4
aI4
aI4
aI4
aI4
aI4
aI4
aI4
aI4
aI4
aI4
aI4
aI4
aI4
aI4
aI4
aI4
aI4
aI4
aI4
aI4
aI4
aI4
aI4
aI4
aI4
aI4
aI4
aI4
aI4
aI4
aI4
aI4
aI4
aI4
aI4
aI4
aI4
aI4
aI4
aI4
aI4
aI4
aI4
aI4
aI4
aI4
aI4
aI4
aI4
aI4
aI4
aI4
aI4
aI4
aI4
aI4
aI4
aI4
aI4
aI4
aI4
aI4
aI4
aI4
aI4
aI4
aI4
aI4
aI4
aI4
aI4
aI4
aI4
aI4
aI4
aI4
aI4
aI4
aI4
aI4
aI4
aI4
aI4
aI4
aI4
aI4
aI4
aI4
aI4
aI4
aI4
aI4
aI4
aI4
aI4
aI4
aI4
aI4
aI4
aI4
aI4
aI4
aI4
aI4
aI4
aI4
aI4
aI4
aI4
aI4
aI4
aI4
aI4
aI4
aI4
aI4
aI4
aI4
aI4
aI4
aI4
aI4
aI4
aI4
aI4
aI4
aI4
aI4
aI4
aI4
aI4
aI4
aI4
aI4
aI4
aI4
aI4
aI4
aI4
aI4
aI4
aI4
aI4
aI4
aI4
aI4
aI4
aI4
aI4
aI4
aI4
aI4
aI4
aI4
aI4
aI4
aI4
aI4
aI4
aI4
aI4
aI4
aI4
aI4
aI4
aI4
aI4
aI4
aI4
aI4
aI4
aI4
aI4
aI4
aI4
aI4
aI4
aI4
aI4
aI4
aI4
aI4
aI4
aI4
aI4
aI4
aI4
aI4
aI4
aI4
aI4
aI4
aI4
aI4
aI4
aI4
aI4
aI4
aI4
aI4
aI4
aI4
aI4
aI4
aI4
aI4
aI4
aI4
aI4
aI4
aI4
aI4
aI4
aI4
aI4
aI4
aI4
aI4
aI4
aI4
aI4
aI4
aI4
aI4
aI4
aI4
aI4
aI4
aI4
aI4
aI4
aI4
aI4
aI4
aI4
aI4
aI4
aI4
aI4
aI4
aI4
aI4
aI4
aI4
aI4
aI4
aI4
aI4
aI4
aI4
aI4
aI4
aI4
aI4
aI4
aI4
aI4
aI4
aI4
aI4
aI4
aI4
aI4
aI4
aI4
aI4
aI4
aI4
aI4
aI4
aI4
aI4
aI4
aI4
aI4
aI4
aI4
aI4
aI4
aI4
aI4
aI4
aI4
aI4
aI4
aI4
aI4
aI4
aI4
aI4
aI4
aI4
aI4
aI4
aI4
aI4
aI4
aI4
aI4
aI4
aI4
aI4
aI4
aI4
aI4
aI4
aI4
aI4
aI4
aI4
aI4
aI4
aI4
aI4
aI4
aI4
aI4
aI4
aI4
aI4
aI4
aI4
aI4
aI4
aI4
aI4
aI4
aI4
aI4
aI4
aI4
aI4
aI4
aI4
aI4
aI4
aI4
aI4
aI4
aI4
aI4
aI4
aI4
aI4
aI4
aI4
aI4
aI4
aI4
aI4
aI4
aI4
aI4
aI4
aI4
aI4
aI4
aI4
aI4
aI4
aI4
aI4
aI4
aI4
aI4
aI4
aI4
aI4
aI4
aI4
aI4
aI4
aI4
aI4
aI4
aI4
aI4
aI4
aI4
aI4
aI4
aI4
aI4
aI4
aI4
aI4
aI4
aI4
aI4
aI4
aI4
aI4
aI4
aI4
aI4
aI4
aI4
aI4
aI4
aI4
aI4
aI4
aI4
aI4
aI4
aI4
aI4
aI4
aI4
aI4
aI4
aI4
aI4
aI4
aI4
aI4
aI4
aI4
aI4
aI4
aI4
aI4
aI4
aI4
aI4
aI4
aI4
aI4
aI4
aI4
aI4
aI4
aI4
aI4
aI4
aI4
aI4
aI4
aI4
aI4
aI4
aI4
aI4
aI4
aI4
aI4
aI4
aI4
aI4
aI4
aI4
aI4
aI4
aI4
aI4
aI4
aI4
aI4
aI4
aI4
aI4
aI4
aI4
aI4
aI4
aI4
aI4
aI4
aI4
aI4
aI4
aI4
aI4
aI4
aI4
aI4
aI4
aI4
aI4
aI4
aI4
aI4
aI4
aI4
aI4
aI4
aI4
aI4
aI4
aI4
aI4
aI4
aI4
aI4
aI4
aI4
aI4
aI4
aI4
aI4
aI4
aI4
aI4
aI4
aI4
aI4
aI4
aI4
aI4
aI4
aI4
aI4
aI4
aI4
aI4
aI4
aI4
aI4
aI4
aI4
aI4
aI4
aI4
aI4
aI4
aI4
aI4
aI4
aI4
aI4
aI4
aI4
aI4
aI4
aI4
aI4
aI4
aI4
aI4
aI4
aI4
aI4
aI4
aI4
aI4
aI4
aI4
aI4
aI4
aI4
aI4
aI4
aI4
aI4
aI4
aI4
aI4
aI4
aI4
aI4
aI4
aI4
aI4
aI4
aI4
aI4
aI4
aI4
aI4
aI4
aI4
aI4
aI4
aI4
aI4
aI4
aI4
aI4
aI4
aI4
aI4
aI4
aI4
aI4
aI4
aI4
aI4
aI4
aI4
aI4
aI4
aI4
aI4
aI4
aI4
aI4
aI4
aI4
aI4
aI4
aI4
aI4
aI4
aI4
aI4
aI4
aI4
aI4
aI4
aI4
aI4
aI4
aI4
aI4
aI4
aI4
aI4
aI4
aI4
aI4
aI4
aI4
aI4
aI4
aI4
aI4
aI4
aI4
aI4
aI4
aI4
aI4
aI4
aI4
aI4
aI4
aI4
aI4
aI4
aI4
aI4
aI4
aI4
aI4
aI4
aI4
aI4
aI4
aI4
aI4
aI4
aI4
aI4
aI4
aI4
aI4
aI4
aI4
aI4
aI4
aI4
aI4
aI4
aI4
aI4
aI4
aI4
aI4
aI4
aI4
aI4
aI4
aI4
aI4
aI4
aI4
aI4
aI4
aI4
aI4
aI4
aI4
aI4
aI4
aI4
aI4
aI4
aI4
aI4
aI4
aI4
aI4
aI4
aI4
aI4
aI4
aI4
aI4
aI4
aI4
aI4
aI4
aI4
aI4
aI4
aI4
aI4
aI4
aI4
aI4
aI4
aI4
aI4
aI4
aI4
aI4
aI4
aI4
aI4
aI4
aI4
aI4
aI4
aI4
aI4
aI4
aI4
aI4
aI4
aI4
aI4
aI4
aI4
aI4
aI4
aI4
aI4
aI4
aI4
aI4
aI4
aI4
aI4
aI4
aI4
aI4
aI4
aI4
aI4
aI4
aI4
aI4
aI4
aI4
aI4
aI4
aI4
aI4
aI4
aI4
aI4
aI4
aI4
aI4
aI4
aI4
aI4
aI4
aI4
aI4
aI4
aI4
aI4
aI4
aa(lp6
I5
aI5
aI5
aI5
aI5
aI5
aI5
aI5
aI5
aI5
aI5
aI5
aI5
aI5
aI5
aI5
aI5
aI5
aI5
aI5
aI5
aI5
aI5
aI5
aI5
aI5
aI5
aI5
aI5
aI5
aI5
aI5
aI5
aI5
aI5
aI5
aI5
aI5
aI5
aI5
aI5
aI5
aI5
aI5
aI5
aI5
aI5
aI5
aI5
aI5
aI5
aI5
aI5
aI5
aI5
aI5
aI5
aI5
aI5
aI5
aI5
aI5
aI5
aI5
aI5
aI5
aI5
aI5
aI5
aI5
aI5
aI5
aI5
aI5
aI5
aI5
aI5
aI5
aI5
aI5
aI5
aI5
aI5
aI5
aI5
aI5
aI5
aI5
aI5
aI5
aI5
aI5
aI5
aI5
aI5
aI5
aI5
aI5
aI5
aI5
aI5
aI5
aI5
aI5
aI5
aI5
aI5
aI5
aI5
aI5
aI5
aI5
aI5
aI5
aI5
aI5
aI5
aI5
aI5
aI5
aI5
aI5
aI5
aI5
aI5
aI5
aI5
aI5
aI5
aI5
aI5
aI5
aI5
aI5
aI5
aI5
aI5
aI5
aI5
aI5
aI5
aI5
aI5
aI5
aI5
aI5
aI5
aI5
aI5
aI5
aI5
aI5
aI5
aI5
aI5
aI5
aI5
aI5
aI5
aI5
aI5
aI5
aI5
aI5
aI5
aI5
aI5
aI5
aI5
aI5
aI5
aI5
aI5
aI5
aI5
aI5
aI5
aI5
aI5
aI5
aI5
aI5
aI5
aI5
aI5
aI5
aI5
aI5
aI5
aI5
aI5
aI5
aI5
aI5
aI5
aI5
aI5
aI5
aI5
aI5
aI5
aI5
aI5
aI5
aI5
aI5
aI5
aI5
aI5
aI5
aI5
aI5
aI5
aI5
aI5
aI5
aI5
aI5
aI5
aI5
aI5
aI5
aI5
aI5
aI5
aI5
aI5
aI5
aI5
aI5
aI5
aI5
aI5
aI5
aI5
aI5
aI5
aI5
aI5
aI5
aI5
aI5
aI5
aI5
aI5
aI5
aI5
aI5
aI5
aI5
aI5
aI5
aI5
aI5
aI5
aI5
aI5
aI5
aI5
aI5
aI5
aI5
aI5
aI5
aI5
aI5
aI5
aI5
aI5
aI5
aI5
aI5
aI5
aI5
aI5
aI5
aI5
aI5
aI5
aI5
aI5
aI5
aI5
aI5
aI5
aI5
aI5
aI5
aI5
aI5
aI5
aI5
aI5
aI5
aI5
aI5
aI5
aI5
aI5
aI5
aI5
aI5
aI5
aI5
aI5
aI5
aI5
aI5
aI5
aI5
aI5
aI5
aI5
aI5
aI5
aI5
aI5
aI5
aI5
aI5
aI5
aI5
aI5
aI5
aI5
aI5
aI5
aI5
aI5
aI5
aI5
aI5
aI5
aI5
aI5
aI5
aI5
aI5
aI5
aI5
aI5
aI5
aI5
aI5
aI5
aI5
aI5
aI5
aI5
aI5
aI5
aI5
aI5
aI5
aI5
aI5
aI5
aI5
aI5
aI5
aI5
aI5
aI5
aI5
aI5
aI5
aI5
aI5
aI5
aI5
aI5
aI5
aI5
aI5
aI5
aI5
aI5
aI5
aI5
aI5
aI5
aI5
aI5
aI5
aI5
aI5
aI5
aI5
aI5
aI5
aI5
aI5
aI5
aI5
aI5
aI5
aI5
aI5
aI5
aI5
aI5
aI5
aI5
aI5
aI5
aI5
aI5
aI5
aI5
aI5
aI5
aI5
aI5
aI5
aI5
aI5
aI5
aI5
aI5
aI5
aI5
aI5
aI5
aI5
aI5
aI5
aI5
aI5
aI5
aI5
aI5
aI5
aI5
aI5
aI5
aI5
aI5
aI5
aI5
aI5
aI5
aI5
aI5
aI5
aI5
aI5
aI5
aI5
aI5
aI5
aI5
aI5
aI5
aI5
aI5
aI5
aI5
aI5
aI5
aI5
aI5
aI5
aI5
aI5
aI5
aI5
aI5
aI5
aI5
aI5
aI5
aI5
aI5
aI5
aI5
aI5
aI5
aI5
aI5
aI5
aI5
aI5
aI5
aI5
aI5
aI5
aI5
aI5
aI5
aI5
aI5
aI5
aI5
aI5
aI5
aI5
aI5
aI5
aI5
aI5
aI5
aI5
aI5
aI5
aI5
aI5
aI5
aI5
aI5
aI5
aI5
aI5
aI5
aI5
aI5
aI5
aI5
aI5
aI5
aI5
aI5
aI5
aI5
aI5
aI5
aI5
aI5
aI5
aI5
aI5
aI5
aI5
aI5
aI5
aI5
aI5
aI5
aI5
aI5
aI5
aI5
aI5
aI5
aI5
aI5
aI5
aI5
aI5
aI5
aI5
aI5
aI5
aI5
aI5
aI5
aI5
aI5
aI5
aI5
aI5
aI5
aI5
aI5
aI5
aI5
aI5
aI5
aI5
aI5
aI5
aI5
aI5
aI5
aI5
aI5
aI5
aI5
aI5
aI5
aI5
aI5
aI5
aI5
aI5
aI5
aI5
aI5
aI5
aI5
aI5
aI5
aI5
aI5
aI5
aI5
aI5
aI5
aI5
aI5
aI5
aI5
aI5
aI5
aI5
aI5
aI5
aI5
aI5
aI5
aI5
aI5
aI5
aI5
aI5
aI5
aI5
aI5
aI5
aI5
aI5
aI5
aI5
aI5
aI5
aI5
aI5
aI5
aI5
aI5
aI5
aI5
aI5
aI5
aI5
aI5
aI5
aI5
aI5
aI5
aI5
aI5
aI5
aI5
aI5
aI5
aI5
aI5
aI5
aI5
aI5
aI5
aI5
aI5
aI5
aI5
aI5
aI5
aI5
aI5
aI5
aI5
aI5
aI5
aI5
aI5
aI5
aI5
aI5
aI5
aI5
aI5
aI5
aI5
aI5
aI5
aI5
aI5
aI5
aI5
aI5
aI5
aI5
aI5
aI5
aI5
aI5
aI5
aI5
aI5
aI5
aI5
aI5
aI5
aI5
aI5
aI5
aI5
aI5
aI5
aI5
aI5
aI5
aI5
aI5
aI5
aI5
aI5
aI5
aI5
aI5
aI5
aI5
aI5
aI5
aI5
aI5
aI5
aI5
aI5
aI5
aI5
aI5
aI5
aI5
aI5
aI5
aI5
aI5
aI5
aI5
aI5
aI5
aI5
aI5
aI5
aI5
aI5
aI5
aI5
aI5
aI5
aI5
aI5
aI5
aI5
aI5
aI5
aI5
aI5
aI5
aI5
aI5
aI5
aI5
aI5
aI5
aI5
aI5
aI5
aI5
aI5
aI5
aI5
aI5
aI5
aI5
aI5
aI5
aI5
aI5
aI5
aI5
aI5
aI5
aI5
aI5
aI5
aI5
aI5
aI5
aI5
aI5
aI5
aI5
aI5
aI5
aI5
aI5
aI5
aI5
aI5
aI5
aI5
aI5
aI5
aI5
aI5
aI5
aI5
aI5
aI5
aI5
aI5
aI5
aI5
aI5
aI5
aI5
aI5
aI5
aI5
aI5
aI5
aI5
aI5
aI5
aI5
aI5
aI5
aI5
aI5
aI5
aI5
aI5
aI5
aI5
aI5
aI5
aI5
aI5
aI5
aI5
aI5
aI5
aI5
aI5
aI5
aI5
aI5
aI5
aI5
aI5
aI5
aI5
aI5
aI5
aI5
aI5
aI5
aI5
aI5
aI5
aI5
aI5
aI5
aI5
aI5
aI5
aI5
aI5
aI5
aI5
aI5
aI5
aI5
aI5
aI5
aI5
aI5
aI5
aI5
aI5
aI5
aI5
aI5
aI5
aI5
aI5
aI5
aI5
aI5
aI5
aI5
aI5
aI5
aI5
aI5
aI5
aI5
aI5
aI5
aI5
aI5
aI5
aI5
aI5
aI5
aI5
aI5
aI5
aI5
aI5
aI5
aI5
aI5
aI5
aI5
aI5
aI5
aI5
aI5
aI5
aI5
aI5
aI5
aI5
aI5
aI5
aI5
aI5
aI5
aI5
aI5
aI5
aI5
aI5
aI5
aI5
aI5
aI5
aI5
aI5
aI5
aI5
aI5
aI5
aI5
aI5
aI5
aI5
aI5
aI5
aI5
aI5
aI5
aI5
aI5
aI5
aI5
aI5
aI5
aI5
aI5
aI5
aI5
aI5
aI5
aI5
aI5
aI5
aI5
aI5
aI5
aI5
aI5
aI5
aI5
aI5
aI5
aI5
aI5
aI5
aI5
aI5
aI5
aI5
aI5
aI5
aI5
aI5
aI5
aI5
aI5
aI5
aI5
aI5
aa(lp7
I6
aI6
aI6
aI6
aI6
aI6
aI6
aI6
aI6
aI6
aI6
aI6
aI6
aI6
aI6
aI6
aI6
aI6
aI6
aI6
aI6
aI6
aI6
aI6
aI6
aI6
aI6
aI6
aI6
aI6
aI6
aI6
aI6
aI6
aI6
aI6
aI6
aI6
aI6
aI6
aI6
aI6
aI6
aI5
aI6
aI6
aI6
aI6
aI6
aI6
aI6
aI6
aI6
aI6
aI6
aI6
aI6
aI6
aI6
aI6
aI6
aI6
aI6
aI6
aI6
aI6
aI6
aI6
aI6
aI6
aI6
aI6
aI6
aI6
aI6
aI6
aI6
aI6
aI6
aI6
aI6
aI6
aI6
aI6
aI6
aI6
aI6
aI6
aI6
aI6
aI6
aI6
aI6
aI6
aI6
aI6
aI6
aI6
aI6
aI6
aI6
aI6
aI6
aI6
aI6
aI6
aI6
aI6
aI6
aI6
aI6
aI6
aI6
aI6
aI6
aI6
aI6
aI6
aI6
aI6
aI6
aI6
aI6
aI6
aI6
aI6
aI6
aI6
aI6
aI6
aI6
aI6
aI6
aI6
aI6
aI6
aI6
aI6
aI6
aI6
aI6
aI6
aI6
aI6
aI6
aI6
aI6
aI6
aI6
aI6
aI6
aI6
aI6
aI6
aI6
aI6
aI6
aI6
aI6
aI6
aI6
aI6
aI6
aI6
aI6
aI6
aI6
aI6
aI6
aI6
aI6
aI6
aI6
aI6
aI6
aI6
aI6
aI6
aI6
aI6
aI6
aI6
aI6
aI6
aI6
aI6
aI6
aI6
aI6
aI6
aI6
aI6
aI6
aI6
aI6
aI6
aI6
aI6
aI6
aI6
aI6
aI6
aI6
aI6
aI6
aI6
aI6
aI6
aI6
aI6
aI6
aI6
aI6
aI6
aI6
aI6
aI6
aI6
aI6
aI6
aI6
aI6
aI6
aI6
aI6
aI6
aI6
aI6
aI6
aI6
aI6
aI6
aI6
aI6
aI6
aI6
aI6
aI6
aI6
aI6
aI6
aI6
aI6
aI6
aI6
aI6
aI6
aI6
aI6
aI6
aI6
aI6
aI6
aI6
aI6
aI6
aI6
aI6
aI6
aI6
aI6
aI6
aI6
aI6
aI6
aI6
aI6
aI6
aI6
aI6
aI6
aI6
aI6
aI6
aI6
aI6
aI6
aI6
aI6
aI6
aI6
aI6
aI6
aI6
aI6
aI6
aI6
aI6
aI6
aI6
aI6
aI6
aI6
aI6
aI6
aI6
aI6
aI6
aI6
aI6
aI6
aI6
aI6
aI6
aI6
aI6
aI6
aI6
aI6
aI6
aI6
aI6
aI6
aI6
aI6
aI6
aI6
aI6
aI6
aI6
aI6
aI6
aI6
aI6
aI6
aI6
aI6
aI6
aI6
aI6
aI6
aI6
aI6
aI6
aI6
aI6
aI6
aI6
aI6
aI6
aI6
aI6
aI6
aI6
aI6
aI6
aI6
aI6
aI6
aI6
aI6
aI6
aI6
aI6
aI6
aI6
aI6
aI6
aI6
aI6
aI6
aI6
aI6
aI6
aI6
aI6
aI6
aI6
aI6
aI6
aI6
aI6
aI6
aI6
aI6
aI6
aI6
aI6
aI6
aI6
aI5
aI6
aI6
aI6
aI6
aI6
aI6
aI6
aI6
aI6
aI6
aI6
aI6
aI6
aI6
aI6
aI6
aI6
aI6
aI6
aI6
aI6
aI6
aI6
aI6
aI6
aI6
aI6
aI6
aI6
aI6
aI6
aI6
aI6
aI6
aI6
aI6
aI6
aI6
aI6
aI6
aI6
aI6
aI6
aI6
aI6
aI6
aI6
aI6
aI6
aI6
aI6
aI6
aI6
aI6
aI6
aI6
aI6
aI6
aI6
aI6
aI6
aI5
aI6
aI6
aI6
aI6
aI6
aI6
aI6
aI6
aI6
aI6
aI6
aI6
aI6
aI6
aI6
aI6
aI6
aI6
aI6
aI6
aI6
aI6
aI6
aI6
aI6
aI6
aI6
aI6
aI6
aI6
aI6
aI6
aI6
aI6
aI6
aI6
aI6
aI6
aI6
aI6
aI6
aI6
aI6
aI6
aI6
aI6
aI6
aI6
aI6
aI6
aI6
aI6
aI6
aI6
aI6
aI6
aI6
aI6
aI6
aI6
aI6
aI6
aI6
aI6
aI6
aI6
aI6
aI6
aI6
aI6
aI6
aI6
aI6
aI6
aI6
aI6
aI6
aI6
aI6
aI6
aI6
aI6
aI6
aI6
aI6
aI6
aI6
aI6
aI6
aI6
aI6
aI6
aI6
aI6
aI6
aI6
aI6
aI6
aI6
aI6
aI6
aI6
aI6
aI6
aI6
aI6
aI6
aI6
aI6
aI6
aI6
aI6
aI6
aI6
aI6
aI7
aI6
aI6
aI6
aI6
aI6
aI6
aI6
aI6
aI6
aI6
aI6
aI6
aI6
aI6
aI6
aI6
aI6
aI6
aI6
aI6
aI6
aI6
aI6
aI6
aI6
aI6
aI6
aI5
aI6
aI6
aI6
aI6
aI6
aI6
aI6
aI6
aI6
aI6
aI6
aI6
aI6
aI6
aI6
aI6
aI6
aI6
aI6
aI6
aI6
aI6
aI6
aI6
aI6
aI6
aI6
aI6
aI6
aI6
aI6
aI6
aI6
aI6
aI6
aI6
aI6
aI6
aI6
aI6
aI6
aI6
aI6
aI6
aI6
aI6
aI6
aI6
aI6
aI6
aI6
aI6
aI6
aI6
aI6
aI6
aI6
aI6
aI6
aI6
aI6
aI6
aI6
aI6
aI6
aI6
aI6
aI6
aI6
aI6
aI6
aI6
aI6
aI6
aI6
aI6
aI6
aI6
aI6
aI6
aI6
aI6
aI6
aI6
aI6
aI6
aI6
aI6
aI6
aI6
aI6
aI6
aI6
aI6
aI6
aI6
aI6
aI6
aI6
aI6
aI6
aI6
aI6
aI6
aI6
aI6
aI6
aI6
aI6
aI6
aI6
aI6
aI6
aI6
aI6
aI6
aI6
aI6
aI6
aI6
aI6
aI6
aI6
aI6
aI6
aI6
aI6
aI6
aI6
aI6
aI6
aI6
aI6
aI6
aI6
aI6
aI6
aI6
aI6
aI6
aI6
aI6
aI6
aI6
aI6
aI6
aI6
aI6
aI6
aI6
aI6
aI6
aI6
aI6
aI6
aI6
aI6
aI6
aI6
aI6
aI6
aI6
aI6
aI6
aI6
aI6
aI6
aI6
aI6
aI6
aI6
aI6
aI6
aI6
aI6
aI6
aI6
aI6
aI6
aI6
aI6
aI6
aI6
aI6
aI6
aI6
aI6
aI6
aI6
aI6
aI6
aI6
aI6
aI6
aI6
aI6
aI6
aI6
aI6
aI6
aI6
aI6
aI6
aI6
aI6
aI6
aI6
aI6
aI6
aI6
aI6
aI6
aI6
aI6
aI6
aI6
aI6
aI6
aI6
aI6
aI6
aI6
aI6
aI6
aI6
aI6
aI6
aI6
aI6
aI6
aI6
aI6
aI6
aI6
aI6
aI6
aI6
aI6
aI6
aI6
aI6
aI6
aI6
aI6
aI6
aI6
aI6
aI6
aI6
aI6
aI6
aI6
aI6
aI6
aI6
aI6
aI6
aI6
aI6
aI6
aI6
aI6
aI6
aI6
aI6
aI6
aI6
aI6
aI6
aI6
aI6
aI6
aI6
aI6
aI6
aI6
aI6
aI6
aI6
aI6
aI6
aI6
aI6
aI6
aI6
aI6
aI6
aI6
aI6
aI6
aI6
aI6
aI6
aI5
aI6
aI6
aI6
aI6
aI6
aI6
aI6
aI6
aI6
aI6
aI6
aI6
aI6
aI6
aI6
aI6
aI6
aI6
aI6
aI6
aI6
aI6
aI6
aI6
aI6
aI6
aI6
aI6
aI6
aI6
aI6
aI6
aI6
aI6
aI6
aI6
aI6
aI6
aI6
aI6
aI6
aI6
aI6
aI6
aI6
aI6
aI6
aI6
aI5
aI6
aI6
aI6
aI6
aI6
aI6
aI6
aI6
aI5
aI6
aI6
aI6
aI6
aI6
aI5
aI6
aI6
aI6
aI6
aI6
aI6
aI6
aI6
aI6
aI6
aI6
aI6
aI6
aI5
aI6
aI6
aI6
aI6
aI6
aI6
aI6
aI6
aI6
aI6
aI6
aI6
aI6
aI6
aI6
aI6
aI6
aI6
aI6
aI6
aI6
aI6
aI6
aI6
aI6
aI6
aI6
aa(lp8
I7
aI7
aI7
aI7
aI7
aI7
aI7
aI7
aI7
aI7
aI7
aI7
aI7
aI7
aI7
aI7
aI7
aI7
aI7
aI7
aI7
aI7
aI7
aI7
aI7
aI7
aI7
aI7
aI7
aI7
aI7
aI7
aI7
aI7
aI7
aI7
aI7
aI7
aI7
aI7
aI7
aI7
aI7
aI7
aI7
aI7
aI7
aI7
aI7
aI7
aI7
aI7
aI7
aI7
aI7
aI7
aI7
aI7
aI7
aI7
aI7
aI7
aI7
aI7
aI7
aI7
aI7
aI7
aI7
aI7
aI7
aI7
aI7
aI7
aI7
aI7
aI7
aI7
aI7
aI7
aI7
aI7
aI7
aI7
aI7
aI7
aI7
aI7
aI7
aI7
aI7
aI7
aI7
aI7
aI7
aI7
aI7
aI7
aI7
aI7
aI7
aI7
aI7
aI7
aI7
aI7
aI7
aI7
aI7
aI7
aI7
aI7
aI7
aI7
aI7
aI7
aI7
aI7
aI7
aI7
aI7
aI7
aI7
aI7
aI7
aI7
aI7
aI7
aI7
aI7
aI7
aI7
aI7
aI7
aI7
aI7
aI7
aI7
aI7
aI7
aI7
aI7
aI7
aI7
aI7
aI7
aI7
aI7
aI7
aI7
aI7
aI7
aI7
aI7
aI7
aI7
aI7
aI7
aI7
aI7
aI7
aI7
aI7
aI7
aI7
aI7
aI7
aI7
aI7
aI7
aI7
aI7
aI7
aI7
aI7
aI7
aI7
aI7
aI7
aI7
aI7
aI7
aI7
aI7
aI7
aI7
aI7
aI7
aI7
aI7
aI7
aI7
aI7
aI7
aI7
aI7
aI7
aI7
aI7
aI7
aI7
aI7
aI7
aI7
aI7
aI7
aI7
aI7
aI7
aI7
aI7
aI7
aI7
aI7
aI7
aI7
aI7
aI7
aI7
aI7
aI7
aI7
aI7
aI7
aI7
aI7
aI7
aI7
aI7
aI7
aI7
aI7
aI7
aI7
aI7
aI7
aI7
aI7
aI7
aI7
aI7
aI7
aI7
aI7
aI7
aI7
aI7
aI7
aI7
aI7
aI7
aI7
aI7
aI7
aI7
aI7
aI7
aI7
aI7
aI7
aI7
aI7
aI7
aI7
aI7
aI7
aI7
aI7
aI7
aI7
aI7
aI7
aI7
aI7
aI7
aI7
aI7
aI7
aI7
aI7
aI7
aI7
aI7
aI7
aI7
aI7
aI7
aI7
aI7
aI7
aI7
aI7
aI7
aI7
aI7
aI7
aI7
aI7
aI7
aI7
aI7
aI7
aI7
aI7
aI7
aI7
aI7
aI7
aI7
aI7
aI7
aI7
aI7
aI7
aI7
aI7
aI7
aI7
aI7
aI7
aI7
aI7
aI7
aI7
aI7
aI7
aI7
aI7
aI7
aI7
aI7
aI7
aI7
aI7
aI7
aI7
aI7
aI7
aI7
aI7
aI7
aI7
aI7
aI7
aI7
aI7
aI7
aI7
aI7
aI7
aI7
aI7
aI7
aI7
aI7
aI7
aI7
aI7
aI7
aI7
aI7
aI7
aI7
aI7
aI7
aI7
aI7
aI7
aI7
aI7
aI7
aI7
aI7
aI7
aI7
aI7
aI7
aI7
aI7
aI7
aI7
aI7
aI7
aI7
aI7
aI7
aI7
aI7
aI7
aI7
aI7
aI7
aI7
aI7
aI7
aI7
aI7
aI7
aI7
aI7
aI7
aI7
aI7
aI7
aI7
aI7
aI7
aI7
aI7
aI7
aI7
aI7
aI7
aI7
aI7
aI7
aI7
aI7
aI7
aI7
aI7
aI7
aI7
aI7
aI7
aI7
aI7
aI7
aI7
aI7
aI7
aI7
aI7
aI7
aI7
aI7
aI7
aI7
aI7
aI7
aI7
aI7
aI7
aI7
aI7
aI7
aI7
aI7
aI7
aI7
aI7
aI7
aI7
aI7
aI7
aI7
aI7
aI7
aI7
aI7
aI7
aI7
aI7
aI7
aI7
aI7
aI7
aI7
aI7
aI7
aI7
aI7
aI7
aI7
aI7
aI7
aI7
aI7
aI7
aI7
aI7
aI7
aI7
aI7
aI7
aI7
aI7
aI7
aI7
aI7
aI7
aI7
aI7
aI7
aI7
aI7
aI7
aI7
aI7
aI7
aI7
aI7
aI7
aI7
aI7
aI7
aI7
aI7
aI7
aI7
aI7
aI7
aI7
aI7
aI7
aI7
aI7
aI7
aI7
aI7
aI7
aI7
aI7
aI7
aI7
aI7
aI7
aI7
aI7
aI7
aI7
aI7
aI7
aI7
aI7
aI7
aI7
aI7
aI7
aI7
aI7
aI7
aI7
aI7
aI7
aI7
aI7
aI7
aI7
aI7
aI7
aI7
aI7
aI7
aI7
aI7
aI7
aI7
aI7
aI7
aI7
aI7
aI7
aI7
aI7
aI7
aI7
aI7
aI7
aI7
aI7
aI7
aI7
aI7
aI7
aI7
aI7
aI7
aI7
aI7
aI7
aI7
aI7
aI7
aI7
aI7
aI7
aI7
aI7
aI7
aI7
aI7
aI7
aI7
aI7
aI7
aI7
aI7
aI7
aI7
aI7
aI7
aI7
aI7
aI7
aI7
aI7
aI7
aI7
aI7
aI7
aI7
aI7
aI7
aI7
aI7
aI7
aI7
aI7
aI7
aI7
aI7
aI7
aI7
aI7
aI7
aI7
aI7
aI7
aI7
aI7
aI7
aI7
aI7
aI7
aI7
aI7
aI7
aI7
aI7
aI7
aI7
aI7
aI7
aI7
aI7
aI7
aI7
aI7
aI7
aI7
aI7
aI7
aI7
aI7
aI7
aI7
aI7
aI7
aI7
aI7
aI7
aI7
aI7
aI7
aI7
aI7
aI7
aI7
aI7
aI7
aI7
aI7
aI7
aI7
aI7
aI7
aI7
aI7
aI7
aI7
aI7
aI7
aI7
aI7
aI7
aI7
aI7
aI7
aI7
aI7
aI7
aI7
aI7
aI7
aI7
aI7
aI7
aI7
aI7
aI7
aI7
aI7
aI7
aI7
aI7
aI7
aI7
aI7
aI7
aI7
aI7
aI7
aI7
aI7
aI7
aI7
aI7
aI7
aI7
aI7
aI7
aI7
aI7
aI7
aI7
aI7
aI7
aI7
aI7
aI7
aI7
aI7
aI7
aI7
aI7
aI7
aI7
aI7
aI7
aI7
aI7
aI7
aI7
aI7
aI7
aI7
aI7
aI7
aI7
aI7
aI7
aI7
aI7
aI7
aI7
aI7
aI7
aI7
aI7
aI7
aI7
aI7
aI7
aI7
aI7
aI7
aI7
aI7
aI7
aI7
aI7
aI7
aI7
aI7
aI7
aI7
aI7
aI7
aI7
aI7
aI7
aI7
aI7
aI7
aI7
aI7
aI7
aI7
aI7
aI7
aI7
aI7
aI7
aI7
aI7
aI7
aI7
aI7
aI7
aI7
aI7
aI7
aI7
aI7
aI7
aI7
aI7
aI7
aI7
aI7
aI7
aI7
aI7
aI7
aI7
aI7
aI7
aI7
aI7
aI7
aI7
aI7
aI7
aI7
aI7
aI7
aI7
aI7
aI7
aI7
aI7
aI7
aI7
aI7
aI7
aI7
aI7
aI7
aI7
aI7
aI7
aI7
aI7
aI7
aI7
aI7
aI7
aI7
aI7
aI7
aI7
aI7
aI7
aI7
aI7
aI7
aI7
aI7
aI7
aI7
aI7
aI7
aI7
aI7
aI7
aI7
aI7
aI7
aI7
aI7
aI7
aI7
aI7
aI7
aI7
aI7
aI7
aI7
aI7
aI7
aI7
aI7
aI7
aI7
aI7
aI7
aI7
aI7
aI7
aI7
aI7
aI7
aI7
aI7
aI7
aI7
aI7
aI7
aI7
aI7
aI7
aI7
aI7
aI7
aI7
aI7
aI7
aI7
aI7
aI7
aI7
aI7
aI7
aI7
aI7
aI7
aI7
aI7
aI7
aI7
aI7
aI7
aI7
aI7
aI7
aI7
aI7
aI7
aI7
aI7
aI7
aI7
aI7
aI7
aI7
aI7
aI7
aI7
aI7
aI7
aI7
aI7
aI7
aI7
aI7
aI7
aI7
aI7
aI7
aI7
aI7
aI7
aI7
aI7
aI7
aI7
aI7
aI7
aI7
aI7
aI7
aI7
aI7
aI7
aI7
aI7
aI7
aI7
aI7
aI7
aI7
aI7
aI7
aI7
aI7
aI7
aI7
aI7
aI7
aI7
aI7
aI7
aI7
aI7
aI7
aI7
aI7
aI7
aI7
aI7
aI7
aI7
aI7
aI7
aI7
aI7
aI7
aI7
aI7
aI7
aI7
aI7
aI7
aI7
aI7
aI7
aI7
aI7
aI7
aI7
aI7
aI7
aI7
aI7
aI7
aI7
aI7
aI7
aI7
aI7
aI7
aI7
aI7
aI7
aI7
aI7
aI7
aI7
aa(lp9
I8
aI8
aI8
aI8
aI8
aI8
aI8
aI8
aI8
aI8
aI8
aI8
aI8
aI8
aI8
aI8
aI8
aI8
aI8
aI8
aI8
aI8
aI8
aI8
aI8
aI8
aI8
aI8
aI8
aI8
aI8
aI8
aI8
aI8
aI8
aI8
aI8
aI8
aI8
aI8
aI8
aI8
aI8
aI8
aI8
aI8
aI8
aI8
aI8
aI8
aI8
aI8
aI8
aI8
aI8
aI8
aI8
aI8
aI8
aI8
aI8
aI8
aI8
aI8
aI8
aI8
aI8
aI8
aI8
aI8
aI8
aI8
aI8
aI8
aI8
aI8
aI8
aI8
aI8
aI8
aI8
aI8
aI8
aI8
aI8
aI8
aI8
aI8
aI8
aI8
aI8
aI8
aI8
aI8
aI8
aI8
aI8
aI8
aI8
aI8
aI8
aI8
aI8
aI8
aI8
aI8
aI8
aI8
aI8
aI8
aI8
aI8
aI8
aI8
aI8
aI8
aI8
aI8
aI8
aI8
aI8
aI8
aI8
aI8
aI8
aI8
aI8
aI8
aI8
aI8
aI8
aI8
aI8
aI8
aI8
aI8
aI8
aI8
aI8
aI8
aI8
aI8
aI8
aI8
aI8
aI8
aI8
aI8
aI8
aI8
aI8
aI8
aI8
aI8
aI8
aI8
aI8
aI8
aI8
aI8
aI8
aI8
aI8
aI8
aI8
aI8
aI8
aI8
aI8
aI8
aI8
aI8
aI8
aI8
aI8
aI8
aI8
aI8
aI8
aI8
aI8
aI8
aI8
aI8
aI8
aI8
aI8
aI8
aI8
aI8
aI8
aI8
aI8
aI8
aI8
aI8
aI8
aI8
aI8
aI8
aI8
aI8
aI8
aI8
aI8
aI8
aI8
aI8
aI8
aI8
aI8
aI8
aI8
aI8
aI8
aI8
aI8
aI8
aI8
aI8
aI8
aI8
aI8
aI8
aI8
aI8
aI8
aI8
aI8
aI8
aI8
aI8
aI8
aI8
aI8
aI8
aI8
aI8
aI8
aI8
aI8
aI8
aI8
aI8
aI8
aI8
aI8
aI8
aI8
aI8
aI8
aI8
aI8
aI8
aI8
aI8
aI8
aI8
aI8
aI8
aI8
aI8
aI8
aI8
aI8
aI8
aI8
aI8
aI8
aI8
aI8
aI8
aI8
aI8
aI8
aI8
aI8
aI8
aI8
aI8
aI8
aI8
aI8
aI8
aI8
aI8
aI8
aI8
aI8
aI8
aI8
aI8
aI8
aI8
aI8
aI8
aI8
aI8
aI8
aI8
aI8
aI8
aI8
aI8
aI8
aI8
aI8
aI8
aI8
aI8
aI8
aI8
aI8
aI8
aI8
aI8
aI8
aI8
aI8
aI8
aI8
aI8
aI8
aI8
aI8
aI8
aI8
aI8
aI8
aI8
aI8
aI8
aI8
aI8
aI8
aI8
aI8
aI8
aI8
aI8
aI8
aI8
aI8
aI8
aI8
aI8
aI8
aI8
aI8
aI8
aI8
aI8
aI8
aI8
aI8
aI8
aI8
aI8
aI8
aI8
aI8
aI8
aI8
aI8
aI8
aI8
aI8
aI8
aI8
aI8
aI8
aI8
aI8
aI8
aI8
aI8
aI8
aI8
aI8
aI8
aI8
aI8
aI8
aI8
aI8
aI8
aI8
aI8
aI8
aI8
aI8
aI8
aI8
aI8
aI8
aI8
aI8
aI8
aI8
aI8
aI8
aI8
aI8
aI8
aI8
aI8
aI8
aI8
aI8
aI8
aI8
aI8
aI8
aI8
aI8
aI8
aI8
aI8
aI8
aI8
aI8
aI8
aI8
aI8
aI8
aI8
aI8
aI8
aI8
aI8
aI8
aI8
aI8
aI8
aI8
aI8
aI8
aI8
aI8
aI8
aI8
aI8
aI8
aI8
aI8
aI8
aI8
aI8
aI8
aI8
aI8
aI8
aI8
aI8
aI8
aI8
aI8
aI8
aI8
aI8
aI8
aI8
aI8
aI8
aI8
aI8
aI8
aI8
aI8
aI8
aI8
aI8
aI8
aI8
aI8
aI8
aI8
aI8
aI8
aI8
aI8
aI8
aI8
aI8
aI8
aI8
aI8
aI8
aI8
aI8
aI8
aI8
aI8
aI8
aI8
aI8
aI8
aI8
aI8
aI8
aI8
aI8
aI8
aI8
aI8
aI8
aI8
aI8
aI8
aI8
aI8
aI8
aI8
aI8
aI8
aI8
aI8
aI8
aI8
aI8
aI8
aI8
aI8
aI8
aI8
aI8
aI8
aI8
aI8
aI8
aI8
aI8
aI8
aI8
aI8
aI8
aI8
aI8
aI8
aI8
aI8
aI8
aI8
aI8
aI8
aI8
aI8
aI8
aI8
aI8
aI8
aI8
aI8
aI8
aI8
aI8
aI8
aI8
aI8
aI8
aI8
aI8
aI8
aI8
aI8
aI8
aI8
aI8
aI8
aI8
aI8
aI8
aI8
aI8
aI8
aI8
aI8
aI8
aI8
aI8
aI8
aI8
aI8
aI8
aI8
aI8
aI8
aI8
aI8
aI8
aI8
aI8
aI8
aI8
aI8
aI8
aI8
aI8
aI8
aI8
aI8
aI8
aI8
aI8
aI8
aI8
aI8
aI8
aI8
aI8
aI8
aI8
aI8
aI8
aI8
aI8
aI8
aI8
aI8
aI8
aI8
aI8
aI8
aI8
aI8
aI8
aI8
aI8
aI8
aI8
aI8
aI8
aI8
aI8
aI8
aI8
aI8
aI8
aI8
aI8
aI8
aI8
aI8
aI8
aI8
aI8
aI8
aI8
aI8
aI8
aI8
aI8
aI8
aI8
aI8
aI8
aI8
aI8
aI8
aI8
aI8
aI8
aI8
aI8
aI8
aI8
aI8
aI8
aI8
aI8
aI8
aI8
aI8
aI8
aI8
aI8
aI8
aI8
aI8
aI8
aI8
aI8
aI8
aI8
aI8
aI8
aI8
aI8
aI8
aI8
aI8
aI8
aI8
aI8
aI8
aI8
aI8
aI8
aI8
aI8
aI8
aI8
aI8
aI8
aI8
aI8
aI8
aI8
aI8
aI8
aI8
aI8
aI8
aI8
aI8
aI8
aI8
aI8
aI8
aI8
aI8
aI8
aI8
aI8
aI8
aI8
aI8
aI8
aI8
aI8
aI8
aI8
aI8
aI8
aI8
aI8
aI8
aI8
aI8
aI8
aI8
aI8
aI8
aI8
aI8
aI8
aI8
aI8
aI8
aI8
aI8
aI8
aI8
aI8
aI8
aI8
aI8
aI8
aI8
aI8
aI8
aI8
aI8
aI8
aI8
aI8
aI8
aI8
aI8
aI8
aI8
aI8
aI8
aI8
aI8
aI8
aI8
aI8
aI8
aI8
aI8
aI8
aI8
aI8
aI8
aI8
aI8
aI8
aI8
aI8
aI8
aI8
aI8
aI8
aI8
aI8
aI8
aI8
aI8
aI8
aI8
aI8
aI8
aI8
aI8
aI8
aI8
aI8
aI8
aI8
aI8
aI8
aI8
aI8
aI8
aI8
aI8
aI8
aI8
aI8
aI8
aI8
aI8
aI8
aI8
aI8
aI8
aI8
aI8
aI8
aI8
aI8
aI8
aI8
aI8
aI8
aI8
aI8
aI8
aI8
aI8
aI8
aI8
aI8
aI8
aI8
aI8
aI8
aI8
aI8
aI8
aI8
aI8
aI8
aI8
aI8
aI8
aI8
aI8
aI8
aI8
aI8
aI8
aI8
aI8
aI8
aI8
aI8
aI8
aI8
aI8
aI8
aI8
aI8
aI8
aI8
aI8
aI8
aI8
aI8
aI8
aI8
aI8
aI8
aI8
aI8
aI8
aI8
aI8
aI8
aI8
aI8
aI8
aI8
aI8
aI8
aI8
aI8
aI8
aI8
aI8
aI8
aI8
aI8
aI8
aI8
aI8
aI8
aI8
aI8
aI8
aI8
aI8
aI8
aI8
aI8
aI8
aI8
aI8
aI8
aI8
aI8
aI8
aI8
aI8
aI8
aI8
aI8
aI8
aI8
aI8
aI8
aI8
aI8
aI8
aI8
aI8
aI8
aI8
aI8
aI8
aI8
aI8
aI8
aI8
aI8
aI8
aI8
aI8
aI8
aI8
aI8
aI8
aI8
aI8
aI8
aI8
aI8
aI8
aI8
aI8
aI8
aI8
aI8
aI8
aI8
aI8
aI8
aI8
aI8
aI8
aI8
aI8
aI8
aI8
aI8
aI8
aI8
aI8
aI8
aI8
aI8
aI8
aI8
aI8
aa(lp10
I9
aI9
aI9
aI9
aI9
aI9
aI9
aI9
aI9
aI9
aI9
aI9
aI9
aI9
aI9
aI9
aI9
aI9
aI9
aI9
aI9
aI9
aI9
aI9
aI9
aI9
aI9
aI9
aI9
aI9
aI9
aI9
aI9
aI9
aI9
aI9
aI9
aI9
aI9
aI9
aI9
aI9
aI9
aI9
aI9
aI9
aI9
aI9
aI9
aI9
aI9
aI9
aI9
aI9
aI9
aI9
aI9
aI9
aI9
aI9
aI9
aI9
aI9
aI9
aI9
aI9
aI9
aI9
aI9
aI9
aI9
aI9
aI9
aI9
aI9
aI9
aI9
aI9
aI9
aI9
aI9
aI9
aI9
aI9
aI9
aI9
aI9
aI9
aI9
aI9
aI9
aI9
aI9
aI9
aI9
aI9
aI9
aI9
aI9
aI9
aI9
aI9
aI9
aI9
aI9
aI9
aI9
aI9
aI9
aI9
aI9
aI9
aI9
aI9
aI9
aI9
aI9
aI9
aI9
aI9
aI9
aI9
aI9
aI9
aI9
aI9
aI9
aI9
aI9
aI9
aI9
aI9
aI9
aI9
aI9
aI9
aI9
aI9
aI9
aI9
aI9
aI9
aI9
aI9
aI9
aI9
aI9
aI9
aI9
aI9
aI9
aI9
aI9
aI9
aI9
aI9
aI9
aI9
aI9
aI9
aI9
aI9
aI9
aI9
aI9
aI9
aI9
aI9
aI9
aI9
aI9
aI9
aI9
aI9
aI9
aI9
aI9
aI9
aI9
aI9
aI9
aI9
aI9
aI9
aI9
aI9
aI9
aI9
aI9
aI9
aI9
aI9
aI9
aI9
aI9
aI9
aI9
aI9
aI9
aI9
aI9
aI9
aI9
aI9
aI9
aI9
aI9
aI9
aI9
aI9
aI9
aI9
aI9
aI9
aI9
aI9
aI9
aI9
aI9
aI9
aI9
aI9
aI9
aI9
aI9
aI9
aI9
aI9
aI9
aI9
aI9
aI9
aI9
aI9
aI9
aI9
aI9
aI9
aI9
aI9
aI9
aI9
aI9
aI9
aI9
aI9
aI9
aI9
aI9
aI9
aI9
aI9
aI9
aI9
aI9
aI9
aI9
aI9
aI9
aI9
aI9
aI9
aI9
aI9
aI9
aI9
aI9
aI9
aI9
aI9
aI9
aI9
aI9
aI9
aI9
aI9
aI9
aI9
aI9
aI9
aI9
aI9
aI9
aI9
aI9
aI9
aI9
aI9
aI9
aI9
aI9
aI9
aI9
aI9
aI9
aI9
aI9
aI9
aI9
aI9
aI9
aI9
aI9
aI9
aI9
aI9
aI9
aI9
aI9
aI9
aI9
aI9
aI9
aI9
aI9
aI9
aI9
aI9
aI9
aI9
aI9
aI9
aI9
aI9
aI9
aI9
aI9
aI9
aI9
aI9
aI9
aI9
aI9
aI9
aI9
aI9
aI9
aI9
aI9
aI9
aI9
aI9
aI9
aI9
aI9
aI9
aI9
aI9
aI9
aI9
aI9
aI9
aI9
aI9
aI9
aI9
aI9
aI9
aI9
aI9
aI9
aI9
aI9
aI9
aI9
aI9
aI9
aI9
aI9
aI9
aI9
aI9
aI9
aI9
aI9
aI9
aI9
aI9
aI9
aI9
aI9
aI9
aI9
aI9
aI9
aI9
aI9
aI9
aI9
aI9
aI9
aI9
aI9
aI9
aI9
aI9
aI9
aI9
aI9
aI9
aI9
aI9
aI9
aI9
aI9
aI9
aI9
aI9
aI9
aI9
aI9
aI9
aI9
aI9
aI9
aI9
aI9
aI9
aI9
aI9
aI9
aI9
aI9
aI9
aI9
aI9
aI9
aI9
aI9
aI9
aI9
aI9
aI9
aI9
aI9
aI9
aI9
aI9
aI9
aI9
aI9
aI9
aI9
aI9
aI9
aI9
aI9
aI9
aI9
aI9
aI9
aI9
aI9
aI9
aI9
aI9
aI9
aI9
aI9
aI9
aI9
aI9
aI9
aI9
aI9
aI9
aI9
aI9
aI9
aI9
aI9
aI9
aI9
aI9
aI9
aI9
aI9
aI9
aI9
aI9
aI9
aI9
aI9
aI9
aI9
aI9
aI9
aI9
aI9
aI9
aI9
aI9
aI9
aI9
aI9
aI9
aI9
aI9
aI9
aI9
aI9
aI9
aI9
aI9
aI9
aI9
aI9
aI9
aI9
aI9
aI9
aI9
aI9
aI9
aI9
aI9
aI9
aI9
aI9
aI9
aI9
aI9
aI9
aI9
aI9
aI9
aI9
aI9
aI9
aI9
aI9
aI9
aI9
aI9
aI9
aI9
aI9
aI9
aI9
aI9
aI9
aI9
aI9
aI9
aI9
aI9
aI9
aI9
aI9
aI9
aI9
aI9
aI9
aI9
aI9
aI9
aI9
aI9
aI9
aI9
aI9
aI9
aI9
aI9
aI9
aI9
aI9
aI9
aI9
aI9
aI9
aI9
aI9
aI9
aI9
aI9
aI9
aI9
aI9
aI9
aI9
aI9
aI9
aI9
aI9
aI9
aI9
aI9
aI9
aI9
aI9
aI9
aI9
aI9
aI9
aI9
aI9
aI9
aI9
aI9
aI9
aI9
aI9
aI9
aI9
aI9
aI9
aI9
aI9
aI9
aI9
aI9
aI9
aI9
aI9
aI9
aI9
aI9
aI9
aI9
aI9
aI9
aI9
aI9
aI9
aI9
aI9
aI9
aI9
aI9
aI9
aI9
aI9
aI9
aI9
aI9
aI9
aI9
aI9
aI9
aI9
aI9
aI9
aI9
aI9
aI9
aI9
aI9
aI9
aI9
aI9
aI9
aI9
aI9
aI9
aI9
aI9
aI9
aI9
aI9
aI9
aI9
aI9
aI9
aI9
aI9
aI9
aI9
aI9
aI9
aI9
aI9
aI9
aI9
aI9
aI9
aI9
aI9
aI9
aI9
aI9
aI9
aI9
aI9
aI9
aI9
aI9
aI9
aI9
aI9
aI9
aI9
aI9
aI9
aI9
aI9
aI9
aI9
aI9
aI9
aI9
aI9
aI9
aI9
aI9
aI9
aI9
aI9
aI9
aI9
aI9
aI9
aI9
aI9
aI9
aI9
aI9
aI9
aI9
aI9
aI9
aI9
aI9
aI9
aI9
aI9
aI9
aI9
aI9
aI9
aI9
aI9
aI9
aI9
aI9
aI9
aI9
aI9
aI9
aI9
aI9
aI9
aI9
aI9
aI9
aI9
aI9
aI9
aI9
aI9
aI9
aI9
aI9
aI9
aI9
aI9
aI9
aI9
aI9
aI9
aI9
aI9
aI9
aI9
aI9
aI9
aI9
aI9
aI9
aI9
aI9
aI9
aI9
aI9
aI9
aI9
aI9
aI9
aI9
aI9
aI9
aI9
aI9
aI9
aI9
aI9
aI9
aI9
aI9
aI9
aI9
aI9
aI9
aI9
aI9
aI9
aI9
aI9
aI9
aI9
aI9
aI9
aI9
aI9
aI9
aI9
aI9
aI9
aI9
aI9
aI9
aI9
aI9
aI9
aI9
aI9
aI9
aI9
aI9
aI9
aI9
aI9
aI9
aI9
aI9
aI9
aI9
aI9
aI9
aI9
aI9
aI9
aI9
aI9
aI9
aI9
aI9
aI9
aI9
aI9
aI9
aI9
aI9
aI9
aI9
aI9
aI9
aI9
aI9
aI9
aI9
aI9
aI9
aI9
aI9
aI9
aI9
aI9
aI9
aI9
aI9
aI9
aI9
aI9
aI9
aI9
aI9
aI9
aI9
aI9
aI9
aI9
aI9
aI9
aI9
aI9
aI9
aI9
aI9
aI9
aI9
aI9
aI9
aI9
aI9
aI9
aI9
aI9
aI9
aI9
aI9
aI9
aI9
aI9
aI9
aI9
aI9
aI9
aI9
aI9
aI9
aI9
aI9
aI9
aI9
aI9
aI9
aI9
aI9
aI9
aI9
aI9
aI9
aI9
aI9
aI9
aI9
aI9
aI9
aI9
aI9
aI9
aI9
aI9
aI9
aI9
aI9
aI9
aI9
aI9
aI9
aI9
aI9
aI9
aI9
aI9
aI9
aI9
aI9
aI9
aI9
aI9
aI9
aI9
aI9
aI9
aI9
aI9
aI9
aI9
aI9
aI9
aI9
aI9
aI9
aI9
aI9
aI9
aI9
aI9
aI9
aI9
aI9
aI9
aI9
aI9
aI9
aI9
aI9
aI9
aI9
aI9
aI9
aI9
aI9
aI9
aI9
aI9
aI9
aI9
aI9
aI9
aI9
aI9
aI9
aI9
aa(lp11
I10
aI10
aI10
aI10
aI10
aI10
aI10
aI10
aI10
aI10
aI10
aI10
aI10
aI10
aI10
aI10
aI10
aI10
aI10
aI10
aI10
aI10
aI10
aI10
aI10
aI10
aI10
aI10
aI10
aI10
aI10
aI10
aI10
aI10
aI10
aI10
aI10
aI10
aI10
aI10
aI10
aI10
aI10
aI10
aI10
aI10
aI10
aI10
aI10
aI10
aI10
aI10
aI10
aI10
aI10
aI10
aI10
aI10
aI10
aI10
aI10
aI10
aI10
aI10
aI10
aI10
aI10
aI10
aI10
aI10
aI10
aI10
aI10
aI10
aI10
aI10
aI10
aI10
aI10
aI10
aI10
aI10
aI10
aI10
aI10
aI10
aI10
aI10
aI10
aI10
aI10
aI10
aI10
aI10
aI10
aI10
aI10
aI10
aI10
aI10
aI10
aI10
aI10
aI10
aI10
aI10
aI10
aI10
aI10
aI10
aI10
aI10
aI10
aI10
aI10
aI10
aI10
aI10
aI10
aI10
aI10
aI10
aI10
aI10
aI10
aI10
aI10
aI10
aI10
aI10
aI10
aI10
aI10
aI10
aI10
aI10
aI10
aI10
aI10
aI10
aI10
aI10
aI10
aI10
aI10
aI10
aI10
aI10
aI10
aI10
aI10
aI10
aI10
aI10
aI10
aI10
aI10
aI10
aI10
aI10
aI10
aI10
aI10
aI10
aI10
aI10
aI10
aI10
aI10
aI10
aI10
aI10
aI10
aI10
aI10
aI10
aI10
aI10
aI10
aI10
aI10
aI10
aI10
aI10
aI10
aI10
aI10
aI10
aI10
aI10
aI10
aI10
aI10
aI10
aI10
aI10
aI10
aI10
aI10
aI10
aI10
aI10
aI10
aI10
aI10
aI10
aI10
aI10
aI10
aI10
aI10
aI10
aI10
aI10
aI10
aI10
aI10
aI10
aI10
aI10
aI10
aI10
aI10
aI10
aI10
aI10
aI10
aI10
aI10
aI10
aI10
aI10
aI10
aI10
aI10
aI10
aI10
aI10
aI10
aI10
aI10
aI10
aI10
aI10
aI10
aI10
aI10
aI10
aI10
aI10
aI10
aI10
aI10
aI10
aI10
aI10
aI10
aI10
aI10
aI10
aI10
aI10
aI10
aI10
aI10
aI10
aI10
aI10
aI10
aI10
aI10
aI10
aI10
aI10
aI10
aI10
aI10
aI10
aI10
aI10
aI10
aI10
aI10
aI10
aI10
aI10
aI10
aI10
aI10
aI10
aI10
aI10
aI10
aI10
aI10
aI10
aI10
aI10
aI10
aI10
aI10
aI10
aI10
aI10
aI10
aI10
aI10
aI10
aI10
aI10
aI10
aI10
aI10
aI10
aI10
aI10
aI10
aI10
aI10
aI10
aI10
aI10
aI10
aI10
aI10
aI10
aI10
aI10
aI10
aI10
aI10
aI10
aI10
aI10
aI10
aI10
aI10
aI10
aI10
aI10
aI10
aI10
aI10
aI10
aI10
aI10
aI10
aI10
aI10
aI10
aI10
aI10
aI10
aI10
aI10
aI10
aI10
aI10
aI10
aI10
aI10
aI10
aI10
aI10
aI10
aI10
aI10
aI10
aI10
aI10
aI10
aI10
aI10
aI10
aI10
aI10
aI10
aI10
aI10
aI10
aI10
aI10
aI10
aI10
aI10
aI10
aI10
aI10
aI10
aI10
aI10
aI10
aI10
aI10
aI10
aI10
aI10
aI10
aI10
aI10
aI10
aI10
aI10
aI10
aI10
aI10
aI10
aI10
aI10
aI10
aI10
aI10
aI10
aI10
aI10
aI10
aI10
aI10
aI10
aI10
aI10
aI10
aI10
aI10
aI10
aI10
aI10
aI10
aI10
aI10
aI10
aI10
aI10
aI10
aI10
aI10
aI10
aI10
aI10
aI10
aI10
aI10
aI10
aI10
aI10
aI10
aI10
aI10
aI10
aI10
aI10
aI10
aI10
aI10
aI10
aI10
aI10
aI10
aI10
aI10
aI10
aI10
aI10
aI10
aI10
aI10
aI10
aI10
aI10
aI10
aI10
aI10
aI10
aI10
aI10
aI10
aI10
aI10
aI10
aI10
aI10
aI10
aI10
aI10
aI10
aI10
aI10
aI10
aI10
aI10
aI10
aI10
aI10
aI10
aI10
aI10
aI10
aI10
aI10
aI10
aI10
aI10
aI10
aI10
aI10
aI10
aI10
aI10
aI10
aI10
aI10
aI10
aI10
aI10
aI10
aI10
aI10
aI10
aI10
aI10
aI10
aI10
aI10
aI10
aI10
aI10
aI10
aI10
aI10
aI10
aI10
aI10
aI10
aI10
aI10
aI10
aI10
aI10
aI10
aI10
aI10
aI10
aI10
aI10
aI10
aI10
aI10
aI10
aI10
aI10
aI10
aI10
aI10
aI10
aI10
aI10
aI10
aI10
aI10
aI10
aI10
aI10
aI10
aI10
aI10
aI10
aI10
aI10
aI10
aI10
aI10
aI10
aI10
aI10
aI10
aI10
aI10
aI10
aI10
aI10
aI10
aI10
aI10
aI10
aI10
aI10
aI10
aI10
aI10
aI10
aI10
aI10
aI10
aI10
aI10
aI10
aI10
aI10
aI10
aI10
aI10
aI10
aI10
aI10
aI10
aI10
aI10
aI10
aI10
aI10
aI10
aI10
aI10
aI10
aI10
aI10
aI10
aI10
aI10
aI10
aI10
aI10
aI10
aI10
aI10
aI10
aI10
aI10
aI10
aI10
aI10
aI10
aI10
aI10
aI10
aI10
aI10
aI10
aI10
aI10
aI10
aI10
aI10
aI10
aI10
aI10
aI10
aI10
aI10
aI10
aI10
aI10
aI10
aI10
aI10
aI10
aI10
aI10
aI10
aI10
aI10
aI10
aI10
aI10
aI10
aI10
aI10
aI10
aI10
aI10
aI10
aI10
aI10
aI10
aI10
aI10
aI10
aI10
aI10
aI10
aI10
aI10
aI10
aI10
aI10
aI10
aI10
aI10
aI10
aI10
aI10
aI10
aI10
aI10
aI10
aI10
aI10
aI10
aI10
aI10
aI10
aI10
aI10
aI10
aI10
aI10
aI10
aI10
aI10
aI10
aI10
aI10
aI10
aI10
aI10
aI10
aI10
aI10
aI10
aI10
aI10
aI10
aI10
aI10
aI10
aI10
aI10
aI10
aI10
aI10
aI10
aI10
aI10
aI10
aI10
aI10
aI10
aI10
aI10
aI10
aI10
aI10
aI10
aI10
aI10
aI10
aI10
aI10
aI10
aI10
aI10
aI10
aI10
aI10
aI10
aI10
aI10
aI10
aI10
aI10
aI10
aI10
aI10
aI10
aI10
aI10
aI10
aI10
aI10
aI10
aI10
aI10
aI10
aI10
aI10
aI10
aI10
aI10
aI10
aI10
aI10
aI10
aI10
aI10
aI10
aI10
aI10
aI10
aI10
aI10
aI10
aI10
aI10
aI10
aI10
aI10
aI10
aI10
aI10
aI10
aI10
aI10
aI10
aI10
aI10
aI10
aI10
aI10
aI10
aI10
aI10
aI10
aI10
aI10
aI10
aI10
aI10
aI10
aI10
aI10
aI10
aI10
aI10
aI10
aI10
aI10
aI10
aI10
aI10
aI10
aI10
aI10
aI10
aI10
aI10
aI10
aI10
aI10
aI10
aI10
aI10
aI10
aI10
aI10
aI10
aI10
aI10
aI10
aI10
aI10
aI10
aI10
aI10
aI10
aI10
aI10
aI10
aI10
aI10
aI10
aI10
aI10
aI10
aI10
aI10
aI10
aI10
aI10
aI10
aI10
aI10
aI10
aI10
aI10
aI10
aI10
aI10
aI10
aI10
aI10
aI10
aI10
aI10
aI10
aI10
aI10
aI10
aI10
aI10
aI10
aI10
aI10
aI10
aI10
aI10
aI10
aI10
aI10
aI10
aI10
aI10
aI10
aI10
aI10
aI10
aI10
aI10
aI10
aI10
aI10
aI10
aI10
aI10
aI10
aI10
aI10
aI10
aI10
aI10
aI10
aI10
aI10
aI10
aI10
aI10
aI10
aI10
aI10
aI10
aI10
aI10
aI10
aI10
aI10
aI10
aI10
aI10
aI10
aI10
aI10
aI10
aI10
aI10
aI10
aI10
aI10
aI10
aI10
aI10
aI10
aI10
aI10
aI10
aI10
aI10
aI10
aI10
aI10
aI10
aI10
aI10
aI10
aI10
aI10
aI10
aI10
aI10
aI10
aI10
aI10
aI10
aI10
aI10
aI10
aI10
aI10
aI10
aI10
aI10
aI10
aI10
aI10
aI10
aI10
aI10
aI10
aa(lp12
I11
aI11
aI11
aI11
aI11
aI11
aI11
aI11
aI11
aI11
aI11
aI11
aI11
aI11
aI11
aI11
aI11
aI11
aI11
aI11
aI11
aI11
aI11
aI11
aI11
aI11
aI11
aI11
aI11
aI11
aI11
aI11
aI11
aI11
aI11
aI11
aI11
aI11
aI11
aI11
aI11
aI11
aI11
aI11
aI11
aI11
aI11
aI11
aI11
aI11
aI11
aI11
aI11
aI11
aI11
aI11
aI11
aI11
aI11
aI11
aI11
aI11
aI11
aI11
aI11
aI11
aI11
aI11
aI11
aI11
aI11
aI11
aI11
aI11
aI11
aI11
aI11
aI11
aI11
aI11
aI11
aI11
aI11
aI11
aI11
aI11
aI11
aI11
aI11
aI11
aI11
aI11
aI11
aI11
aI11
aI11
aI11
aI11
aI11
aI11
aI11
aI11
aI11
aI11
aI11
aI11
aI11
aI11
aI11
aI11
aI11
aI11
aI11
aI11
aI11
aI11
aI11
aI11
aI11
aI11
aI11
aI11
aI11
aI11
aI11
aI11
aI11
aI11
aI11
aI11
aI11
aI11
aI11
aI11
aI11
aI11
aI11
aI11
aI11
aI11
aI11
aI11
aI11
aI11
aI11
aI11
aI11
aI11
aI11
aI11
aI11
aI11
aI11
aI11
aI11
aI11
aI11
aI11
aI11
aI11
aI11
aI11
aI11
aI11
aI11
aI11
aI11
aI11
aI11
aI11
aI11
aI11
aI11
aI11
aI11
aI11
aI11
aI11
aI11
aI11
aI11
aI11
aI11
aI11
aI11
aI11
aI11
aI11
aI11
aI11
aI11
aI11
aI11
aI11
aI11
aI11
aI11
aI11
aI11
aI11
aI11
aI11
aI11
aI11
aI11
aI11
aI11
aI11
aI11
aI11
aI11
aI11
aI11
aI11
aI11
aI11
aI11
aI11
aI11
aI11
aI11
aI11
aI11
aI11
aI11
aI11
aI11
aI11
aI11
aI11
aI11
aI11
aI11
aI11
aI11
aI11
aI11
aI11
aI11
aI11
aI11
aI11
aI11
aI11
aI11
aI11
aI11
aI11
aI11
aI11
aI11
aI11
aI11
aI11
aI11
aI11
aI11
aI11
aI11
aI11
aI11
aI11
aI11
aI11
aI11
aI11
aI11
aI11
aI11
aI11
aI11
aI11
aI11
aI11
aI11
aI11
aI11
aI11
aI11
aI11
aI11
aI11
aI11
aI11
aI11
aI11
aI11
aI11
aI11
aI11
aI11
aI11
aI11
aI11
aI11
aI11
aI11
aI11
aI11
aI11
aI11
aI11
aI11
aI11
aI11
aI11
aI11
aI11
aI11
aI11
aI11
aI11
aI11
aI11
aI11
aI11
aI11
aI11
aI11
aI11
aI11
aI11
aI11
aI11
aI11
aI11
aI11
aI11
aI11
aI11
aI11
aI11
aI11
aI11
aI11
aI11
aI11
aI11
aI11
aI11
aI11
aI11
aI11
aI11
aI11
aI11
aI11
aI11
aI11
aI11
aI11
aI11
aI11
aI11
aI11
aI11
aI11
aI11
aI11
aI11
aI11
aI11
aI11
aI11
aI11
aI11
aI11
aI11
aI11
aI11
aI11
aI11
aI11
aI11
aI11
aI11
aI11
aI11
aI11
aI11
aI11
aI11
aI11
aI11
aI11
aI11
aI11
aI11
aI11
aI11
aI11
aI11
aI11
aI11
aI11
aI11
aI11
aI11
aI11
aI11
aI11
aI11
aI11
aI11
aI11
aI11
aI11
aI11
aI11
aI11
aI11
aI11
aI11
aI11
aI11
aI11
aI11
aI11
aI11
aI11
aI11
aI11
aI11
aI11
aI11
aI11
aI11
aI11
aI11
aI11
aI11
aI11
aI11
aI11
aI11
aI11
aI11
aI11
aI11
aI11
aI11
aI11
aI11
aI11
aI11
aI11
aI11
aI11
aI11
aI11
aI11
aI11
aI11
aI11
aI11
aI11
aI11
aI11
aI11
aI11
aI11
aI11
aI11
aI11
aI11
aI11
aI11
aI11
aI11
aI11
aI11
aI11
aI11
aI11
aI11
aI11
aI11
aI11
aI11
aI11
aI11
aI11
aI11
aI11
aI11
aI11
aI11
aI11
aI11
aI11
aI11
aI11
aI11
aI11
aI11
aI11
aI11
aI11
aI11
aI11
aI11
aI11
aI11
aI11
aI11
aI11
aI11
aI11
aI11
aI11
aI11
aI11
aI11
aI11
aI11
aI11
aI11
aI11
aI11
aI11
aI11
aI11
aI11
aI11
aI11
aI11
aI11
aI11
aI11
aI11
aI11
aI11
aI11
aI11
aI11
aI11
aI11
aI11
aI11
aI11
aI11
aI11
aI11
aI11
aI11
aI11
aI11
aI11
aI11
aI11
aI11
aI11
aI11
aI11
aI11
aI11
aI11
aI11
aI11
aI11
aI11
aI11
aI11
aI11
aI11
aI11
aI11
aI11
aI11
aI11
aI11
aI11
aI11
aI11
aI11
aI11
aI11
aI11
aI11
aI11
aI11
aI11
aI11
aI11
aI11
aI11
aI11
aI11
aI11
aI11
aI11
aI11
aI11
aI11
aI11
aI11
aI11
aI11
aI11
aI11
aI11
aI11
aI11
aI11
aI11
aI11
aI11
aI11
aI11
aI11
aI11
aI11
aI11
aI11
aI11
aI11
aI11
aI11
aI11
aI11
aI11
aI11
aI11
aI11
aI11
aI11
aI11
aI11
aI11
aI11
aI11
aI11
aI11
aI11
aI11
aI11
aI11
aI11
aI11
aI11
aI11
aI11
aI11
aI11
aI11
aI11
aI11
aI11
aI11
aI11
aI11
aI11
aI11
aI11
aI11
aI11
aI11
aI11
aI11
aI11
aI11
aI11
aI11
aI11
aI11
aI11
aI11
aI11
aI11
aI11
aI11
aI11
aI11
aI11
aI11
aI11
aI11
aI11
aI11
aI11
aI11
aI11
aI11
aI11
aI11
aI11
aI11
aI11
aI11
aI11
aI11
aI11
aI11
aI11
aI11
aI11
aI11
aI11
aI11
aI11
aI11
aI11
aI11
aI11
aI11
aI11
aI11
aI11
aI11
aI11
aI11
aI11
aI11
aI11
aI11
aI11
aI11
aI11
aI11
aI11
aI11
aI11
aI11
aI11
aI11
aI11
aI11
aI11
aI11
aI11
aI11
aI11
aI11
aI11
aI11
aI11
aI11
aI11
aI11
aI11
aI11
aI11
aI11
aI11
aI11
aI11
aI11
aI11
aI11
aI11
aI11
aI11
aI11
aI11
aI11
aI11
aI11
aI11
aI11
aI11
aI11
aI11
aI11
aI11
aI11
aI11
aI11
aI11
aI11
aI11
aI11
aI11
aI11
aI11
aI11
aI11
aI11
aI11
aI11
aI11
aI11
aI11
aI11
aI11
aI11
aI11
aI11
aI11
aI11
aI11
aI11
aI11
aI11
aI11
aI11
aI11
aI11
aI11
aI11
aI11
aI11
aI11
aI11
aI11
aI11
aI11
aI11
aI11
aI11
aI11
aI11
aI11
aI11
aI11
aI11
aI11
aI11
aI11
aI11
aI11
aI11
aI11
aI11
aI11
aI11
aI11
aI11
aI11
aI11
aI11
aI11
aI11
aI11
aI11
aI11
aI11
aI11
aI11
aI11
aI11
aI11
aI11
aI11
aI11
aI11
aI11
aI11
aI11
aI11
aI11
aI11
aI11
aI11
aI11
aI11
aI11
aI11
aI11
aI11
aI11
aI11
aI11
aI11
aI11
aI11
aI11
aI11
aI11
aI11
aI11
aI11
aI11
aI11
aI11
aI11
aI11
aI11
aI11
aI11
aI11
aI11
aI11
aI11
aI11
aI11
aI11
aI11
aI11
aI11
aI11
aI11
aI11
aI11
aI11
aI11
aI11
aI11
aI11
aI11
aI11
aI11
aI11
aI11
aI11
aI11
aI11
aI11
aI11
aI11
aI11
aI11
aI11
aI11
aI11
aI11
aI11
aI11
aI11
aI11
aI11
aI11
aI11
aI11
aI11
aI11
aI11
aI11
aI11
aI11
aI11
aI11
aI11
aI11
aI11
aI11
aI11
aI11
aI11
aI11
aI11
aI11
aI11
aI11
aI11
aI11
aI11
aI11
aI11
aI11
aI11
aI11
aI11
aI11
aI11
aI11
aI11
aI11
aI11
aI11
aI11
aI11
aI11
aI11
aI11
aI11
aI11
aI11
aI11
aI11
aI11
aI11
aI11
aI11
aI11
aI11
aI11
aI11
aI11
aI11
aI11
aI11
aI11
aI11
aI11
aI11
aI11
aa(lp13
I12
aI12
aI12
aI12
aI12
aI12
aI12
aI12
aI12
aI12
aI12
aI12
aI12
aI12
aI12
aI12
aI12
aI12
aI12
aI12
aI12
aI12
aI12
aI12
aI12
aI12
aI12
aI12
aI12
aI12
aI12
aI12
aI12
aI12
aI12
aI12
aI12
aI12
aI12
aI12
aI12
aI12
aI12
aI12
aI12
aI12
aI12
aI12
aI12
aI12
aI12
aI12
aI12
aI12
aI12
aI12
aI12
aI12
aI12
aI12
aI12
aI12
aI12
aI12
aI12
aI12
aI12
aI12
aI12
aI12
aI12
aI12
aI12
aI12
aI12
aI12
aI12
aI12
aI12
aI12
aI12
aI12
aI12
aI12
aI12
aI12
aI12
aI12
aI12
aI12
aI12
aI12
aI12
aI12
aI12
aI12
aI12
aI12
aI12
aI12
aI12
aI12
aI12
aI12
aI12
aI12
aI12
aI12
aI12
aI12
aI12
aI12
aI12
aI12
aI12
aI12
aI12
aI12
aI12
aI12
aI12
aI12
aI12
aI12
aI12
aI12
aI12
aI12
aI12
aI12
aI12
aI12
aI12
aI12
aI12
aI12
aI12
aI12
aI12
aI12
aI12
aI12
aI12
aI12
aI12
aI12
aI12
aI12
aI12
aI12
aI12
aI12
aI12
aI12
aI12
aI12
aI12
aI12
aI12
aI12
aI12
aI12
aI12
aI12
aI12
aI12
aI12
aI12
aI12
aI12
aI12
aI12
aI12
aI12
aI12
aI12
aI12
aI12
aI12
aI12
aI12
aI12
aI12
aI12
aI12
aI12
aI12
aI12
aI12
aI12
aI12
aI12
aI12
aI12
aI12
aI12
aI12
aI12
aI12
aI12
aI12
aI12
aI12
aI12
aI12
aI12
aI12
aI12
aI12
aI12
aI12
aI12
aI12
aI12
aI12
aI12
aI12
aI12
aI12
aI12
aI12
aI12
aI12
aI12
aI12
aI12
aI12
aI12
aI12
aI12
aI12
aI12
aI12
aI12
aI12
aI12
aI12
aI12
aI12
aI12
aI12
aI12
aI12
aI12
aI12
aI12
aI12
aI12
aI12
aI12
aI12
aI12
aI12
aI12
aI12
aI12
aI12
aI12
aI12
aI12
aI12
aI12
aI12
aI12
aI12
aI12
aI12
aI12
aI12
aI12
aI12
aI12
aI12
aI12
aI12
aI12
aI12
aI12
aI12
aI12
aI12
aI12
aI12
aI12
aI12
aI12
aI12
aI12
aI12
aI12
aI12
aI12
aI12
aI12
aI12
aI12
aI12
aI12
aI12
aI12
aI12
aI12
aI12
aI12
aI12
aI12
aI12
aI12
aI12
aI12
aI12
aI12
aI12
aI12
aI12
aI12
aI12
aI12
aI12
aI12
aI12
aI12
aI12
aI12
aI12
aI12
aI12
aI12
aI12
aI12
aI12
aI12
aI12
aI12
aI12
aI12
aI12
aI12
aI12
aI12
aI12
aI12
aI12
aI12
aI12
aI12
aI12
aI12
aI12
aI12
aI12
aI12
aI12
aI12
aI12
aI12
aI12
aI12
aI12
aI12
aI12
aI12
aI12
aI12
aI12
aI12
aI12
aI12
aI12
aI12
aI12
aI12
aI12
aI12
aI12
aI12
aI12
aI12
aI12
aI12
aI12
aI12
aI12
aI12
aI12
aI12
aI12
aI12
aI12
aI12
aI12
aI12
aI12
aI12
aI12
aI12
aI12
aI12
aI12
aI12
aI12
aI12
aI12
aI12
aI12
aI12
aI12
aI12
aI12
aI12
aI12
aI12
aI12
aI12
aI12
aI12
aI12
aI12
aI12
aI12
aI12
aI12
aI12
aI12
aI12
aI12
aI12
aI12
aI12
aI12
aI12
aI12
aI12
aI12
aI12
aI12
aI12
aI12
aI12
aI12
aI12
aI12
aI12
aI12
aI12
aI12
aI12
aI12
aI12
aI12
aI12
aI12
aI12
aI12
aI12
aI12
aI12
aI12
aI12
aI12
aI12
aI12
aI12
aI12
aI12
aI12
aI12
aI12
aI12
aI12
aI12
aI12
aI12
aI12
aI12
aI12
aI12
aI12
aI12
aI12
aI12
aI12
aI12
aI12
aI12
aI12
aI12
aI12
aI12
aI12
aI12
aI12
aI12
aI12
aI12
aI12
aI12
aI12
aI12
aI12
aI12
aI12
aI12
aI12
aI12
aI12
aI12
aI12
aI12
aI12
aI12
aI12
aI12
aI12
aI12
aI12
aI12
aI12
aI12
aI12
aI12
aI12
aI12
aI12
aI12
aI12
aI12
aI12
aI12
aI12
aI12
aI12
aI12
aI12
aI12
aI12
aI12
aI12
aI12
aI12
aI12
aI12
aI12
aI12
aI12
aI12
aI12
aI12
aI12
aI12
aI12
aI12
aI12
aI12
aI12
aI12
aI12
aI12
aI12
aI12
aI12
aI12
aI12
aI12
aI12
aI12
aI12
aI12
aI12
aI12
aI12
aI12
aI12
aI12
aI12
aI12
aI12
aI12
aI12
aI12
aI12
aI12
aI12
aI12
aI12
aI12
aI12
aI12
aI12
aI12
aI12
aI12
aI12
aI12
aI12
aI12
aI12
aI12
aI12
aI12
aI12
aI12
aI12
aI12
aI12
aI12
aI12
aI12
aI12
aI12
aI12
aI12
aI12
aI12
aI12
aI12
aI12
aI12
aI12
aI12
aI12
aI12
aI12
aI12
aI12
aI12
aI12
aI12
aI12
aI12
aI12
aI12
aI12
aI12
aI12
aI12
aI12
aI12
aI12
aI12
aI12
aI12
aI12
aI12
aI12
aI12
aI12
aI12
aI12
aI12
aI12
aI12
aI12
aI12
aI12
aI12
aI12
aI12
aI12
aI12
aI12
aI12
aI12
aI12
aI12
aI12
aI12
aI12
aI12
aI12
aI12
aI12
aI12
aI12
aI12
aI12
aI12
aI12
aI12
aI12
aI12
aI12
aI12
aI12
aI12
aI12
aI12
aI12
aI12
aI12
aI12
aI12
aI12
aI12
aI12
aI12
aI12
aI12
aI12
aI12
aI12
aI12
aI12
aI12
aI12
aI12
aI12
aI12
aI12
aI12
aI12
aI12
aI12
aI12
aI12
aI12
aI12
aI12
aI12
aI12
aI12
aI12
aI12
aI12
aI12
aI12
aI12
aI12
aI12
aI12
aI12
aI12
aI12
aI12
aI12
aI12
aI12
aI12
aI12
aI12
aI12
aI12
aI12
aI12
aI12
aI12
aI12
aI12
aI12
aI12
aI12
aI12
aI12
aI12
aI12
aI12
aI12
aI12
aI12
aI12
aI12
aI12
aI12
aI12
aI12
aI12
aI12
aI12
aI12
aI12
aI12
aI12
aI12
aI12
aI12
aI12
aI12
aI12
aI12
aI12
aI12
aI12
aI12
aI12
aI12
aI12
aI12
aI12
aI12
aI12
aI12
aI12
aI12
aI12
aI12
aI12
aI12
aI12
aI12
aI12
aI12
aI12
aI12
aI12
aI12
aI12
aI12
aI12
aI12
aI12
aI12
aI12
aI12
aI12
aI12
aI12
aI12
aI12
aI12
aI12
aI12
aI12
aI12
aI12
aI12
aI12
aI12
aI12
aI12
aI12
aI12
aI12
aI12
aI12
aI12
aI12
aI12
aI12
aI12
aI12
aI12
aI12
aI12
aI12
aI12
aI12
aI12
aI12
aI12
aI12
aI12
aI12
aI12
aI12
aI12
aI12
aI12
aI12
aI12
aI12
aI12
aI12
aI12
aI12
aI12
aI12
aI12
aI12
aI12
aI12
aI12
aI12
aI12
aI12
aI12
aI12
aI12
aI12
aI12
aI12
aI12
aI12
aI12
aI12
aI12
aI12
aI12
aI12
aI12
aI12
aI12
aI12
aI12
aI12
aI12
aI12
aI12
aI12
aI12
aI12
aI12
aI12
aI12
aI12
aI12
aI12
aI12
aI12
aI12
aI12
aI12
aI12
aI12
aI12
aI12
aI12
aI12
aI12
aI12
aI12
aI12
aI12
aI12
aI12
aI12
aI12
aI12
aI12
aI12
aI12
aI12
aI12
aI12
aI12
aI12
aI12
aI12
aI12
aI12
aI12
aI12
aI12
aI12
aI12
aI12
aI12
aI12
aI12
aI12
aI12
aI12
aI12
aI12
aI12
aI12
aI12
aI12
aI12
aI12
aI12
aI12
aI12
aI12
aI12
aI12
aI12
aI12
aI12
aI12
aI12
aI12
aI12
aI12
aI12
aI12
aI12
aI12
aI12
aI12
aI12
aI12
aI12
aI12
aI12
aI12
aI12
aa(lp14
I8
aI4
aI6
aI12
aI5
aI2
aI8
aI3
aI4
aI8
aI11
aI8
aI10
aI11
aI8
aI11
aI8
aI5
aI7
aI10
aI1
aI8
aI8
aI3
aI10
aI0
aI8
aI8
aI4
aI4
aI3
aI8
aI8
aI7
aI8
aI8
aI2
aI11
aI12
aI11
aI8
aI10
aI4
aI3
aI11
aI2
aI6
aI7
aI11
aI11
aI4
aI8
aI8
aI8
aI11
aI4
aI4
aI11
aI8
aI12
aI11
aI10
aI3
aI6
aI3
aI8
aI2
aI8
aI8
aI11
aI8
aI5
aI11
aI8
aI7
aI10
aI8
aI8
aI6
aI2
aI3
aI8
aI8
aI3
aI8
aI2
aI10
aI6
aI11
aI1
aI11
aI0
aI10
aI11
aI4
aI11
aI2
aI11
aI8
aI3
aI11
aI8
aI10
aI8
aI6
aI12
aI4
aI8
aI6
aI8
aI8
aI8
aI8
aI8
aI8
aI4
aI6
aI4
aI8
aI12
aI4
aI11
aI12
aI3
aI8
aI8
aI4
aI11
aI7
aI4
aI7
aI4
aI12
aI1
aI3
aI4
aI6
aI11
aI3
aI10
aI1
aI2
aI7
aI8
aI11
aI8
aI8
aI3
aI2
aI11
aI3
aI6
aI11
aI8
aI6
aI11
aI6
aI6
aI11
aI5
aI8
aI12
aI11
aI4
aI8
aI6
aI2
aI12
aI8
aI10
aI8
aI3
aI8
aI8
aI4
aI12
aI8
aI12
aI8
aI4
aI10
aI8
aI12
aI1
aI7
aI11
aI3
aI10
aI8
aI11
aI12
aI10
aI4
aI2
aI2
aI4
aI8
aI6
aI8
aI6
aI3
aI11
aI6
aI8
aI12
aI8
aI11
aI12
aI4
aI3
aI12
aI2
aI3
aI3
aI5
aI10
aI2
aI2
aI8
aI8
aI12
aI12
aI11
aI7
aI5
aI12
aI8
aI5
aI11
aI1
aI6
aI1
aI7
aI2
aI8
aI11
aI8
aI12
aI3
aI8
aI7
aI8
aI2
aI8
aI8
aI11
aI8
aI8
aI3
aI4
aI8
aI0
aI4
aI10
aI10
aI8
aI4
aI4
aI8
aI8
aI7
aI8
aI11
aI8
aI4
aI8
aI12
aI2
aI2
aI8
aI8
aI7
aI10
aI4
aI12
aI8
aI12
aI1
aI5
aI8
aI3
aI4
aI5
aI3
aI4
aI8
aI3
aI5
aI11
aI8
aI4
aI12
aI7
aI6
aI11
aI3
aI7
aI11
aI7
aI8
aI11
aI2
aI12
aI8
aI5
aI7
aI8
aI4
aI2
aI5
aI4
aI8
aI12
aI11
aI6
aI11
aI8
aI8
aI6
aI11
aI11
aI8
aI11
aI8
aI3
aI4
aI8
aI10
aI8
aI0
aI12
aI4
aI11
aI5
aI6
aI11
aI3
aI3
aI2
aI8
aI8
aI6
aI11
aI4
aI4
aI8
aI4
aI11
aI8
aI2
aI7
aI11
aI4
aI11
aI8
aI8
aI7
aI7
aI11
aI12
aI5
aI6
aI5
aI4
aI11
aI8
aI4
aI2
aI3
aI2
aI3
aI5
aI4
aI6
aI0
aI2
aI11
aI3
aI8
aI5
aI11
aI4
aI3
aI8
aI8
aI8
aI10
aI8
aI2
aI11
aI11
aI0
aI11
aI2
aI6
aI8
aI12
aI12
aI5
aI0
aI1
aI4
aI2
aI2
aI4
aI2
aI3
aI11
aI2
aI8
aI4
aI11
aI8
aI11
aI10
aI5
aI10
aI2
aI3
aI4
aI2
aI7
aI11
aI12
aI5
aI8
aI8
aI8
aI7
aI8
aI11
aI8
aI8
aI5
aI11
aI5
aI6
aI8
aI11
aI7
aI3
aI2
aI10
aI7
aI5
aI4
aI11
aI11
aI8
aI10
aI4
aI6
aI10
aI11
aI12
aI8
aI11
aI12
aI6
aI11
aI3
aI8
aI6
aI4
aI12
aI3
aI3
aI12
aI6
aI4
aI8
aI8
aI7
aI11
aI7
aI11
aI10
aI12
aI8
aI4
aI12
aI7
aI2
aI8
aI11
aI8
aI8
aI6
aI11
aI11
aI11
aI6
aI11
aI12
aI8
aI12
aI11
aI8
aI12
aI10
aI10
aI8
aI8
aI8
aI11
aI8
aI7
aI6
aI8
aI11
aI4
aI4
aI2
aI6
aI6
aI8
aI8
aI8
aI8
aI10
aI2
aI10
aI7
aI10
aI7
aI8
aI10
aI12
aI12
aI12
aI8
aI12
aI6
aI12
aI11
aI4
aI5
aI4
aI7
aI8
aI10
aI5
aI7
aI11
aI4
aI3
aI11
aI5
aI8
aI3
aI10
aI8
aI10
aI11
aI8
aI11
aI8
aI12
aI5
aI8
aI5
aI8
aI8
aI2
aI8
aI11
aI8
aI8
aI10
aI1
aI6
aI12
aI7
aI11
aI11
aI4
aI8
aI6
aI8
aI8
aI12
aI2
aI7
aI10
aI2
aI8
aI8
aI1
aI11
aI11
aI8
aI12
aI11
aI6
aI6
aI10
aI8
aI12
aI8
aI8
aI8
aI12
aI8
aI8
aI7
aI7
aI2
aI8
aI8
aI3
aI3
aI8
aI11
aI6
aI4
aI8
aI5
aI8
aI2
aI11
aI12
aI11
aI8
aI11
aI3
aI10
aI6
aI8
aI8
aI8
aI11
aI10
aI12
aI3
aI12
aI6
aI12
aI11
aI2
aI10
aI3
aI2
aI4
aI10
aI1
aI11
aI8
aI12
aI2
aI8
aI2
aI6
aI8
aI7
aI7
aI11
aI3
aI11
aI8
aI6
aI8
aI8
aI3
aI4
aI1
aI5
aI6
aI6
aI12
aI6
aI8
aI11
aI10
aI2
aI4
aI8
aI2
aI8
aI8
aI8
aI3
aI12
aI4
aI8
aI8
aI10
aI8
aI10
aI8
aI8
aI2
aI11
aI1
aI1
aI11
aI11
aI11
aI8
aI10
aI1
aI5
aI10
aI3
aI5
aI3
aI8
aI11
aI8
aI6
aI10
aI12
aI10
aI7
aI3
aI11
aI0
aI4
aI11
aI4
aI10
aI8
aI2
aI10
aI8
aI8
aI10
aI12
aI8
aI8
aI3
aI8
aI8
aI4
aI5
aI8
aI2
aI6
aI7
aI8
aI11
aI6
aI8
aI8
aI4
aI11
aI8
aI8
aI7
aI6
aI8
aI10
aI11
aI8
aI4
aI3
aI7
aI5
aI8
aI8
aI5
aI8
aI6
aI6
aI11
aI12
aI3
aI11
aI8
aI12
aI3
aI12
aI12
aI2
aI4
aI1
aI8
aI4
aI10
aI8
aI6
aI4
aI3
aI7
aI6
aI8
aI8
aI10
aI11
aI4
aI4
aI8
aI12
aI1
aI8
aI12
aI8
aI8
aI4
aI11
aI8
aI3
aI4
aI6
aI8
aI6
aI8
aI2
aI3
aI2
aI4
aI10
aI10
aI7
aI10
aI8
aI4
aI3
aI11
aI6
aI11
aI2
aI10
aI11
aI3
aI2
aI8
aI10
aI3
aI8
aI8
aI2
aI7
aI12
aI8
aI5
aI3
aI8
aI6
aI10
aI8
aI12
aI10
aI8
aI2
aI12
aI8
aI8
aI11
aI5
aI2
aI11
aI8
aI6
aI2
aI12
aI10
aI10
aI4
aI3
aI7
aI4
aI4
aI8
aI3
aI3
aI4
aI8
aI10
aI2
aI4
aI2
aI4
aI11
aI12
aI4
aI11
aI6
aI8
aI2
aI8
aI4
aI11
aI4
aI7
aI3
aI11
aI7
aI7
aI8
aI3
aI8
aI6
aI12
aI7
aI8
aI11
aI12
aI8
aI11
aI3
aI8
aI1
aI4
aI2
aI8
aI11
aI10
aI8
aI11
aI8
aI8
aI4
aI8
aI11
aI11
aI2
aI2
aI8
aI4
aI5
aI12
aI8
aI3
aI4
aI2
aI8
aI6
aI2
aI2
aI8
aI2
aI8
aI10
aI12
aI8
aI6
aI11
aI5
aI4
aI7
aI11
aI10
aI11
aI10
aI2
aI5
aI11
aI1
aI11
aI10
aI3
aI8
aI10
aI8
aI11
aI2
aI2
aI1
aI10
aI3
aI8
aI12
aI8
aI11
aI8
aI4
aI12
aI1
aI11
aI11
aI8
aI6
aI11
aI4
aI5
aI3
aI8
aI5
aI10
aI11
aI2
aI10
aI3
aI10
aI5
aI11
aI8
aI10
aI2
aI3
aI1
aI8
aI1
aI6
aI11
aI8
aI11
aI8
aI11
aI2
aI6
aI3
aI4
aI10
aI5
aI2
aI5
aI6
aI6
aI3
aI2
aI5
aI8
aI4
aI6
aI11
aI4
aI3
aI8
aI10
aI8
aI11
aI5
aI10
aI8
aI7
aI12
aI12
aI8
aI8
aI11
aI10
aI8
aI8
aI11
aI4
aI6
aI8
aI3
aI8
aI11
aI11
aI12
aI8
aI11
aI2
aI6
aI6
aI10
aI5
aI6
aI8
aI4
aI2
aI8
aI7
aI10
aI10
aI4
aI8
aI6
aI8
aI11
aI11
aI11
aI6
aI3
aI0
aI4
aI6
aI8
aI12
aI8
aI3
aI5
aI6
aI2
aI6
aI12
aI8
aI11
aI8
aI8
aI1
aI2
aI8
aI11
aI4
aI12
aI12
aI8
aI8
aI11
aI10
aI7
aI8
aI1
aI8
aI11
aI11
aI2
aI12
aI3
aI4
aI11
aI6
aI8
aI6
aI11
aI5
aI8
aI7
aI6
aI3
aI12
aI8
aI6
aI12
aI8
aI6
aI4
aI2
aI6
aI7
aI8
aI7
aI6
aI2
aI3
aI11
aI4
aI11
aI12
aI11
aI11
aI2
aI8
aI8
aI7
aI11
aI4
aI12
aI11
aI11
aI8
aI7
aI4
aI6
aI2
aI11
aI8
aI8
aI8
aI11
aI8
aI11
aI6
aI11
aI11
aI5
aI3
aI8
aI8
aI6
aI0
aI2
aI8
aI8
aI4
aI8
aI2
aI6
aI2
aI11
aI11
aI12
aI11
aI11
aI8
aI7
aI12
aI3
aI2
aI10
aI7
aI8
aI5
aI2
aI4
aI8
aI6
aI6
aI11
aI4
aI11
aI8
aI8
aI3
aI8
aI8
aI8
aI11
aI12
aI4
aI8
aI8
aI2
aI12
aI4
aI6
aI4
aI2
aI10
aI8
aI7
aI8
aI4
aI6
aI11
aI10
aI11
aI10
aI5
aI11
aI8
aI11
aI10
aI8
aI5
aI6
aI11
aI3
aI11
aI6
aI12
aI11
aI1
aI1
aI11
aI10
aI12
aI6
aI8
aI6
aI2
aI10
aI8
aI4
aI5
aI8
aI8
aI1
aI4
aI2
aI0
aI6
aI8
aI4
aI8
aI4
aI11
aI5
aI8
aI3
aI2
aI8
aI8
aI5
aI7
aI8
aI11
aI10
aI8
aI12
aI11
aI12
aI11
aI11
aI10
aI12
aI4
aI7
aI10
aI12
aI1
aI12
aI8
aI12
aI10
aI8
aI8
aI10
aI10
aI8
aI4
aI2
aI2
aI6
aI11
aI11
aI2
aI7
aI6
aI8
aI12
aI11
aI12
aI8
aI12
aI8
aI10
aI4
aI0
aI6
aI8
aI3
aI11
aI1
aI5
aI8
aI11
aI8
aI3
aI8
aI4
aI8
aI8
aI10
aI6
aI8
aI6
aI11
aI8
aI1
aI5
aI8
aI3
aI6
aI8
aI0
aI10
aI1
aI5
aI11
aI3
aI4
aI11
aI10
aI4
aI8
aI8
aI8
aI2
aI10
aI5
aI8
aI10
aI8
aI6
aI12
aI8
aI5
aI11
aI1
aI8
aI6
aI5
aI4
aI7
aI3
aI8
aI11
aI8
aI8
aI8
aI2
aI12
aI11
aI8
aI7
aI11
aI10
aI2
aI6
aI11
aI8
aI3
aI2
aI8
aI8
aI3
aI11
aI7
aI2
aI1
aI4
aI5
aI8
aI2
aI12
aI8
aI12
aI8
aI8
aI10
aI10
aI8
aI8
aI2
aI2
aI2
aI10
aI6
aI11
aI11
aI12
aI11
aI5
aI8
aI10
aI11
aI2
aI5
aI3
aI11
aI4
aI8
aI8
aI4
aI10
aI4
aI11
aI8
aI8
aI6
aI11
aI8
aI6
aI8
aI11
aI7
aI4
aI8
aI12
aI5
aI11
aI8
aI11
aI4
aI12
aI11
aI4
aI11
aI3
aI11
aI8
aI8
aI8
aI8
aI3
aI10
aI4
aI3
aI6
aI8
aI8
aI11
aI7
aI4
aI0
aI8
aI10
aI12
aI10
aI4
aI7
aI8
aI8
aI4
aI11
aI11
aI11
aI8
aI8
aI7
aI10
aI5
aI7
aI11
aI4
aI7
aI6
aI6
aI11
aI4
aI4
aI4
aI6
aI6
aI4
aI3
aI8
aI8
aI10
aI3
aI2
aI2
aI5
aI2
aI12
aI6
aI5
aI10
aI2
aI6
aI6
aI6
aI11
aI10
aI2
aI8
aI8
aI6
aI4
aI2
aI8
aI4
aI10
aI5
aI3
aI5
aI6
aI8
aI3
aI10
aI5
aI3
aI4
aI10
aI11
aI8
aI12
aI2
aI8
aI5
aI2
aI11
aI8
aI8
aI12
aI10
aI6
aI8
aI8
aI11
aI3
aI11
aI8
aI8
aI4
aI3
aI11
aI8
aI7
aI11
aI4
aI12
aI4
aI8
aI2
aI6
aI2
aI11
aI10
aI8
aI5
aI12
aI8
aI10
aI3
aI3
aI4
aI2
aI5
aI3
aI11
aI6
aI3
aI10
aI11
aI12
aI8
aI10
aI11
aI3
aI11
aI3
aI8
aI7
aI1
aI5
aI3
aI2
aI2
aI8
aI6
aI10
aI2
aI2
aI6
aI2
aI11
aI5
aI12
aI11
aI11
aI8
aI6
aI11
aI7
aI11
aI7
aI0
aI10
aI12
aI8
aI7
aI6
aI11
aI3
aI8
aI8
aI8
aI8
aI11
aI12
aI8
aI3
aI12
aI8
aI3
aI8
aI11
aI8
aI3
aI3
aI7
aI5
aI10
aI11
aI8
aI6
aI12
aI6
aI8
aI2
aI7
aI8
aI3
aI3
aI4
aI6
aI3
aI11
aI6
aI8
aI10
aI8
aI6
aI10
aI2
aI11
aI11
aI10
aI10
aI8
aI11
aI2
aI8
aI11
aI12
aI4
aI4
aI2
aI11
aI8
aI6
aI11
aI8
aI11
aI11
aI2
aI8
aI6
aI8
aI8
aI2
aI5
aI8
aI10
aI12
aI11
aI4
aI11
aI6
aI1
aI3
aI11
aI2
aI2
aI6
aI5
aI4
aI10
aI4
aI3
aI0
aI12
aI2
aI11
aI10
aI8
aI7
aI8
aI8
aI8
aI12
aI1
aI8
aI10
aI11
aI12
aI1
aI11
aI8
aI11
aI12
aI8
aI4
aI8
aI2
aI4
aI3
aI4
aI8
aI7
aI8
aI12
aI8
aI4
aI10
aI8
aI7
aI1
aI8
aI2
aI12
aI11
aI7
aI8
aI8
aI11
aI8
aI3
aI8
aI11
aI8
aI8
aI11
aI12
aI1
aI11
aI4
aI12
aI12
aI2
aI3
aI12
aI5
aI11
aI12
aI12
aI8
aI2
aI8
aI12
aI8
aI11
aI3
aI8
aI11
aI3
aI3
aI12
aI3
aI10
aI11
aI8
aI6
aI8
aI7
aI2
aI8
aI8
aI8
aI2
aI8
aI8
aI3
aI4
aI8
aI8
aI10
aI12
aI4
aI11
aI3
aI1
aI4
aI7
aI4
aI12
aI6
aI8
aI7
aI2
aI12
aI7
aI8
aI11
aI6
aI8
aI8
aI12
aI8
aI7
aI3
aI8
aI2
aI8
aI8
aI11
aI4
aI8
aI8
aI12
aI8
aI11
aI6
aI3
aI6
aI8
aI4
aI11
aI12
aI8
aI2
aI6
aI11
aI11
aI12
aI12
aI8
aI8
aI8
aI8
aI4
aI4
aI12
aI11
aI4
aI11
aI5
aI12
aI11
aI8
aI8
aI4
aI11
aI8
aI10
aI7
aI6
aI11
aI12
aI11
aI1
aI4
aI11
aI11
aI11
aI10
aI12
aI2
aI4
aI12
aI11
aI6
aI6
aI6
aI6
aI10
aI5
aI7
aI6
aI10
aI11
aI2
aI8
aI12
aI2
aI11
aI7
aI8
aI8
aI1
aI2
aI10
aI11
aI8
aI6
aI8
aI11
aI5
aI8
aI5
aI3
aI11
aI8
aI6
aI11
aI8
aI8
aI4
aI8
aI11
aI8
aI11
aI8
aI4
aI8
aI4
aI3
aI11
aI11
aI10
aI10
aI8
aI12
aI8
aI12
aI6
aI3
aI11
aI8
aI11
aI3
aI11
aI5
aI6
aI8
aI11
aI4
aI1
aI11
aI7
aI11
aI8
aI8
aI6
aI11
aI6
aI4
aI7
aI7
aI6
aI6
aI3
aI8
aI8
aI12
aI10
aI8
aI8
aI6
aI3
aI8
aI8
aI8
aI8
aI11
aI2
aI6
aI2
aI10
aI12
aI8
aI2
aI3
aI8
aI2
aI3
aI7
aI10
aI12
aI10
aI3
aI8
aI12
aI6
aI0
aI8
aI10
aI8
aI4
aI3
aI8
aI11
aI7
aI5
aI10
aI7
aI8
aI2
aI2
aI12
aI7
aI12
aI8
aI12
aI12
aI3
aI10
aI8
aI8
aI8
aI3
aI4
aI8
aI11
aI11
aI8
aI4
aI4
aI2
aI12
aI8
aI3
aI6
aI5
aI10
aI1
aI12
aI8
aI3
aI10
aI2
aI7
aI8
aI11
aI12
aI8
aI4
aI6
aI3
aI5
aI8
aI8
aI3
aI11
aI12
aI4
aI2
aI2
aI4
aI6
aI6
aI2
aI11
aI8
aI7
aI8
aI11
aI12
aI8
aI8
aI3
aI8
aI8
aI7
aI6
aI7
aI6
aI8
aI4
aI8
aI10
aI2
aI8
aI4
aI5
aI12
aI8
aI8
aI6
aI8
aI11
aI11
aI5
aI3
aI4
aI12
aI10
aI7
aI11
aI8
aI7
aI5
aI12
aI11
aI7
aI12
aI0
aI8
aI8
aI0
aI11
aI11
aI11
aI8
aI2
aI10
aI12
aI8
aI11
aI1
aI7
aI2
aI11
aI8
aI8
aI2
aI11
aI8
aI3
aI8
aI8
aI8
aI8
aI8
aI11
aI5
aI0
aI10
aI8
aI8
aI11
aI10
aI8
aI5
aI11
aI7
aI12
aI12
aI2
aI4
aI8
aI6
aI2
aI11
aI3
aI8
aI12
aI2
aI8
aI6
aI5
aI6
aI2
aI10
aI12
aI12
aI11
aI12
aI11
aI8
aI11
aI5
aI3
aI10
aI5
aI12
aI11
aI11
aI8
aI11
aI11
aI6
aI10
aI5
aI4
aI6
aI5
aI3
aI8
aI11
aI10
aI11
aI8
aI12
aI8
aI2
aI10
aI8
aI8
aI12
aI7
aI7
aI1
aI5
aI12
aI2
aI11
aI2
aI11
aI8
aI11
aI8
aI12
aI12
aI10
aI6
aI7
aI5
aI6
aI12
aI3
aI4
aI5
aI11
aI8
aI8
aI8
aI0
aI11
aI10
aI2
aI5
aI11
aI2
aI6
aI8
aI10
aI11
aI8
aI11
aI11
aI12
aI7
aI11
aI4
aI3
aI8
aI8
aI5
aI12
aI8
aI1
aI8
aI1
aI4
aI11
aI8
aI12
aI8
aI10
aI8
aI11
aI3
aI8
aI4
aI6
aI12
aI8
aI8
aI8
aI11
aI4
aI7
aI8
aI2
aI6
aI5
aI7
aI6
aI11
aI8
aI3
aI8
aI8
aI8
aI11
aI0
aI2
aI4
aI8
aI11
aI1
aI1
aI4
aI8
aI11
aI10
aI4
aI11
aI3
aI4
aI12
aI4
aI3
aI11
aI5
aI1
aI3
aI2
aI5
aI8
aI12
aI5
aI6
aI8
aI11
aI8
aI12
aI10
aI8
aI7
aI3
aI12
aI8
aI2
aI6
aI11
aI2
aI11
aI3
aI4
aI6
aI8
aI8
aI3
aI7
aI4
aI8
aI10
aI10
aI3
aI8
aI11
aI2
aI8
aI8
aI8
aI5
aI8
aI3
aI8
aI10
aI11
aI4
aI6
aI8
aI6
aI11
aI2
aI8
aI8
aI8
aI4
aI11
aI11
aI3
aI12
aI8
aI4
aI11
aI12
aI8
aI10
aI11
aI7
aI11
aI5
aI10
aI7
aI2
aI8
aI11
aI2
aI1
aI5
aI1
aI8
aI11
aI11
aI4
aI4
aI3
aI3
aI11
aI11
aI8
aI8
aI3
aI10
aI10
aI6
aI12
aI8
aI7
aI4
aI8
aI11
aI8
aI3
aI8
aI6
aI8
aI8
aI7
aI3
aI4
aI11
aI8
aI11
aI3
aI7
aI8
aI11
aI4
aI5
aI5
aI11
aI10
aI1
aI0
aI10
aI4
aI3
aI10
aI11
aI8
aI12
aI11
aI3
aI8
aI11
aI12
aI6
aI12
aI8
aI4
aI7
aI8
aI1
aI10
aI11
aI6
aI11
aI11
aI10
aI10
aI11
aI4
aI2
aI2
aI7
aI11
aI11
aI11
aI2
aI7
aI7
aI11
aI11
aI6
aI5
aI2
aI4
aI8
aI12
aI10
aI4
aI1
aI3
aI8
aI8
aI11
aI8
aI8
aI11
aI8
aI8
aI8
aI2
aI10
aI7
aI8
aI4
aI5
aI10
aI11
aI2
aI11
aI6
aI12
aI4
aI8
aI3
aI11
aI8
aI11
aI12
aI11
aI8
aI8
aI10
aI8
aI4
aI11
aI6
aI10
aI11
aI5
aI7
aI8
aI8
aI12
aI11
aI12
aI2
aI10
aI4
aI2
aI5
aI4
aI4
aI8
aI8
aI6
aI8
aI5
aI7
aI8
aI8
aI11
aI4
aI12
aI11
aI11
aI7
aI6
aI4
aI3
aI11
aI12
aI8
aI5
aI11
aI8
aI2
aI12
aI10
aI12
aI4
aI8
aI8
aI11
aI12
aI12
aI1
aI8
aI4
aI3
aI3
aI8
aI5
aI2
aI12
aI10
aI2
aI1
aI10
aI2
aI8
aI11
aI11
aI8
aI12
aI11
aI2
aI8
aI8
aI11
aI10
aI2
aI6
aI3
aI11
aI8
aI4
aI7
aI6
aI6
aI4
aI5
aI8
aI11
aI4
aI8
aI12
aI11
aI11
aI8
aI11
aI3
aI8
aI8
aI12
aI5
aI8
aI12
aI4
aI4
aI4
aI10
aI5
aI10
aI7
aI6
aI8
aI5
aI2
aI10
aI11
aI11
aI11
aI4
aI11
aI12
aI8
aI5
aI5
aI6
aI3
aI8
aI2
aI8
aI8
aI6
aI8
aI11
aI7
aI8
aI11
aI8
aI4
aI12
aI1
aI11
aI11
aI8
aI6
aI11
aI3
aI3
aI11
aI10
aI6
aI11
aI8
aI7
aI5
aI8
aI12
aI10
aI8
aI7
aI10
aI10
aI5
aI11
aI6
aI11
aI12
aI6
aI4
aI4
aI6
aI12
aI8
aI5
aI12
aI11
aI3
aI5
aI4
aI11
aI4
aI11
aI11
aI11
aI11
aI8
aI2
aI4
aI8
aI8
aI12
aI5
aI6
aI8
aI2
aI3
aI5
aI8
aI11
aI11
aI10
aI4
aI2
aI5
aI8
aI2
aI11
aI4
aI8
aI6
aI8
aI4
aI11
aI6
aI4
aI8
aI11
aI8
aI11
aI2
aI2
aI8
aI8
aI8
aI11
aI7
aI11
aI11
aI2
aI12
aI8
aI12
aI6
aI11
aI6
aI8
aI8
aI11
aI8
aI3
aI4
aI8
aI11
aI5
aI8
aI5
aI5
aI4
aI12
aI4
aI12
aI10
aI12
aI12
aI5
aI4
aI6
aI3
aI7
aI4
aI2
aI10
aI2
aI5
aI4
aI10
aI4
aI11
aI12
aI7
aI10
aI8
aI8
aI2
aI6
aI8
aI10
aI8
aI11
aI10
aI8
aI12
aI11
aI3
aI8
aI6
aI5
aI12
aI12
aI3
aI6
aI10
aI11
aI1
aI2
aI2
aI10
aI4
aI8
aI10
aI11
aI3
aI11
aI8
aI10
aI11
aI12
aI5
aI2
aI5
aI3
aI5
aI8
aI4
aI8
aI4
aI4
aI2
aI11
aI6
aI1
aI8
aI2
aI11
aI8
aI4
aI8
aI3
aI10
aI11
aI6
aI5
aI1
aI6
aI4
aI3
aI2
aI11
aI11
aI8
aI6
aI5
aI2
aI2
aI6
aI8
aI8
aI11
aI7
aI6
aI4
aI4
aI4
aI5
aI11
aI12
aI6
aI5
aI4
aI8
aI4
aI6
aI8
aI10
aI11
aI8
aI11
aI8
aI8
aI12
aI2
aI8
aI10
aI4
aI8
aI8
aI2
aI7
aI10
aI6
aI7
aI11
aI3
aI5
aI8
aI8
aI1
aI6
aI11
aI10
aI7
aI8
aI1
aI6
aI12
aI5
aI10
aI8
aI11
aI12
aI8
aI8
aI11
aI3
aI5
aI12
aI11
aI8
aI12
aI12
aI3
aI12
aI12
aI4
aI7
aI5
aI11
aI8
aI8
aI12
aI5
aI11
aI6
aI3
aI8
aI4
aI11
aI5
aI11
aI1
aI8
aI8
aI2
aI11
aI3
aI8
aI2
aI11
aI6
aI2
aI4
aI8
aI8
aI8
aI8
aI5
aI4
aI3
aI4
aI5
aI2
aI5
aI7
aI3
aI12
aI11
aI12
aI12
aI5
aI5
aI5
aI11
aI1
aI7
aI11
aI10
aI8
aI4
aI8
aI11
aI3
aI2
aI12
aI11
aI4
aI10
aI11
aI12
aI8
aI11
aI3
aI4
aI2
aI12
aI12
aI1
aI11
aI2
aI11
aI8
aI8
aI8
aI10
aI4
aI8
aI4
aI8
aI2
aI3
aI11
aI8
aI6
aI6
aI3
aI12
aI2
aI11
aI6
aI4
aI8
aI2
aI5
aI1
aI2
aI5
aI5
aI2
aI8
aI4
aI7
aI11
aI11
aI8
aI8
aI2
aI12
aI12
aI2
aI7
aI11
aI10
aI12
aI3
aI11
aI11
aI4
aI8
aI11
aI6
aI8
aI3
aI4
aI5
aI8
aI7
aI8
aI11
aI7
aI2
aI10
aI8
aI12
aI10
aI5
aI4
aI10
aI12
aI8
aI11
aI4
aI10
aI12
aI8
aI5
aI2
aI2
aI8
aI5
aI4
aI11
aI1
aI11
aI4
aI7
aI11
aI6
aI2
aI8
aI8
aI12
aI10
aI8
aI7
aI8
aI1
aI5
aI0
aI1
aI2
aI3
aI8
aI11
aI11
aI5
aI10
aI8
aI8
aI2
aI10
aI7
aI10
aI11
aI11
aI12
aI5
aI1
aI11
aI7
aI8
aI10
aI3
aI11
aI5
aI8
aI8
aI2
aI6
aI8
aI4
aI12
aI2
aI3
aI7
aI12
aI8
aI8
aI5
aI8
aI12
aI8
aI8
aI4
aI8
aI8
aI8
aI0
aI6
aI3
aI12
aI8
aI8
aI11
aI11
aI10
aI2
aI12
aI8
aI8
aI2
aI12
aI3
aI8
aI11
aI8
aI5
aI8
aI4
aI6
aI3
aI11
aI8
aI12
aI11
aI6
aI11
aI2
aI4
aI8
aI8
aI8
aI11
aI12
aI3
aI11
aI6
aI0
aI3
aI8
aI11
aI5
aI2
aI8
aI8
aI6
aI6
aI11
aI11
aI11
aI10
aI3
aI3
aI8
aI3
aI8
aI4
aI5
aI12
aI7
aI10
aI8
aI8
aI12
aI3
aI8
aI8
aI7
aI10
aI11
aI5
aI5
aI8
aI6
aI11
aI8
aI8
aI4
aI11
aI2
aI8
aI11
aI8
aI3
aI5
aI8
aI8
aI8
aI11
aI6
aI10
aI4
aI3
aI8
aI2
aI2
aI10
aI2
aI11
aI2
aI10
aI8
aI3
aI2
aI7
aI8
aI7
aI7
aI11
aI8
aI6
aI7
aI8
aI11
aI5
aI7
aI8
aI2
aI3
aI4
aI12
aI8
aI11
aI8
aI10
aI12
aI1
aI6
aI3
aI4
aI4
aI12
aI11
aI8
aI8
aI11
aI4
aI3
aI4
aI8
aI11
aI7
aI3
aI8
aI11
aI11
aI4
aI3
aI12
aI3
aI8
aI12
aI4
aI3
aI12
aI8
aI12
aI6
aI5
aI10
aI2
aI10
aI3
aI11
aI8
aI7
aI2
aI7
aI11
aI8
aI8
aI2
aI8
aI4
aI8
aI12
aI8
aI11
aI6
aI2
aI8
aI5
aI8
aI11
aI5
aI8
aI4
aI8
aI2
aI11
aI3
aI8
aI11
aI12
aI6
aI1
aI2
aI11
aI4
aI6
aI11
aI6
aI8
aI12
aI11
aI6
aI11
aI2
aI11
aI8
aI4
aI12
aI8
aI11
aI11
aI11
aI8
aI5
aI2
aI3
aI4
aI11
aI5
aI8
aI11
aI12
aI3
aI11
aI5
aI2
aI3
aI8
aI5
aI8
aI8
aI7
aI11
aI6
aI8
aI12
aI8
aI11
aI10
aI3
aI8
aI2
aI2
aI11
aI10
aI12
aI0
aI4
aI2
aI8
aI2
aI11
aI8
aI8
aI12
aI5
aI6
aI6
aI12
aI3
aI12
aI5
aI0
aI11
aI8
aI6
aI2
aI4
aI3
aI8
aI8
aI11
aI11
aI8
aI6
aI11
aI8
aI8
aI6
aI3
aI12
aI12
aI8
aI7
aI8
aI3
aI8
aI10
aI11
aI8
aI12
aI12
aI6
aI8
aI10
aI8
aI3
aI8
aI5
aI8
aI10
aI4
aI8
aI11
aI12
aI10
aI2
aI6
aI6
aI1
aI8
aI8
aI8
aI12
aI2
aI3
aI5
aI4
aI8
aI8
aI8
aI8
aI2
aI2
aI4
aI12
aI11
aI11
aI7
aI8
aI12
aI10
aI8
aI11
aI10
aI4
aI11
aI6
aI3
aI3
aI6
aI12
aI2
aI6
aI5
aI5
aI6
aI8
aI11
aI8
aI11
aI6
aI8
aI8
aI11
aI11
aI11
aI11
aI3
aI5
aI12
aI12
aI12
aI0
aI8
aI8
aI8
aI12
aI7
aI6
aI10
aI5
aI3
aI11
aI4
aI6
aI8
aI11
aI6
aI2
aI3
aI6
aI8
aI4
aI8
aI8
aI4
aI7
aI4
aI11
aI10
aI8
aI6
aI12
aI5
aI12
aI2
aI8
aI6
aI10
aI7
aI4
aI2
aI3
aI2
aI8
aI3
aI6
aI8
aI8
aI11
aI10
aI8
aI8
aI8
aI4
aI3
aI5
aI7
aI8
aI11
aI2
aI4
aI8
aI11
aI11
aI3
aI8
aI8
aI11
aI12
aI8
aI11
aI7
aI6
aI3
aI8
aI2
aI8
aI1
aI11
aI6
aI4
aI11
aI8
aI11
aI5
aI4
aI10
aI11
aI8
aI2
aI11
aI8
aI11
aI4
aI5
aI3
aI2
aI12
aI11
aI7
aI6
aI6
aI11
aI11
aI2
aI2
aI10
aI3
aI11
aI11
aI11
aI8
aI8
aI8
aI12
aI2
aI8
aI3
aI5
aI7
aI7
aI8
aI8
aI11
aI10
aI11
aI8
aI6
aI11
aI12
aI7
aI12
aI2
aI7
aI8
aI11
aI2
aI5
aI6
aI3
aI11
aI6
aI11
aI7
aI1
aI8
aI5
aI7
aI6
aI8
aI2
aI8
aI12
aI12
aI4
aI0
aI12
aI4
aI8
aI11
aI3
aI2
aI0
aI5
aI10
aI1
aI6
aI3
aI12
aI7
aI3
aI8
aI6
aI7
aI2
aI11
aI4
aI4
aI3
aI7
aI2
aI10
aI6
aI11
aI2
aI8
aI11
aI11
aI8
aI6
aI12
aI8
aI8
aI8
aI6
aI5
aI8
aI2
aI6
aI10
aI11
aI8
aI11
aI11
aI8
aI11
aI3
aI12
aI3
aI8
aI8
aI12
aI8
aI3
aI8
aI4
aI8
aI0
aI5
aI11
aI5
aI10
aI12
aI11
aI8
aI8
aI6
aI4
aI6
aI8
aI0
aI11
aI8
aI7
aI12
aI11
aI8
aI4
aI7
aI12
aI4
aI10
aI10
aI10
aI8
aI11
aI3
aI4
aI11
aI8
aI8
aI4
aI7
aI12
aI1
aI2
aI11
aI11
aI11
aI0
aI8
aI12
aI4
aI8
aI3
aI11
aI7
aI2
aI6
aI8
aI6
aI11
aI8
aI3
aI4
aI10
aI8
aI11
aI12
aI11
aI11
aI8
aI2
aI11
aI8
aI8
aI8
aI8
aI2
aI3
aI12
aI11
aI11
aI11
aI7
aI6
aI12
aI8
aI2
aI10
aI3
aI10
aI12
aI3
aI8
aI8
aI1
aI11
aI2
aI8
aI11
aI0
aI11
aI12
aI8
aI4
aI8
aI11
aI12
aI12
aI5
aI6
aI8
aI8
aI4
aI8
aI12
aI8
aI8
aI12
aI11
aI12
aI2
aI2
aI3
aI8
aI11
aI8
aI3
aI0
aI1
aI11
aI5
aI10
aI11
aI8
aI10
aI4
aI3
aI10
aI6
aI12
aI5
aI11
aI12
aI12
aI10
aI8
aI8
aI8
aI8
aI8
aI4
aI11
aI11
aI4
aI8
aI8
aI4
aI8
aI6
aI5
aI3
aI10
aI8
aI3
aI5
aI3
aI11
aI8
aI8
aI11
aI8
aI10
aI6
aI4
aI10
aI11
aI11
aI11
aI11
aI6
aI12
aI12
aI6
aI11
aI4
aI2
aI8
aI8
aI2
aI3
aI3
aI11
aI10
aI3
aI4
aI4
aI3
aI11
aI10
aI12
aI8
aI2
aI5
aI1
aI8
aI11
aI11
aI6
aI8
aI8
aI7
aI11
aI11
aI8
aI0
aI8
aI11
aI6
aI6
aI12
aI8
aI3
aI8
aI12
aI8
aI3
aI11
aI11
aI3
aI11
aI11
aI2
aI11
aI4
aI8
aI11
aI11
aI8
aI3
aI8
aI6
aI8
aI8
aI5
aI5
aI7
aI11
aI12
aI7
aI3
aI6
aI10
aI8
aI5
aI8
aI4
aI12
aI11
aI11
aI2
aI5
aI0
aI11
aI6
aI8
aI5
aI11
aI8
aI6
aI6
aI10
aI11
aI4
aI2
aI8
aI3
aI11
aI4
aI12
aI12
aI8
aI12
aI6
aI8
aI7
aI4
aI3
aI11
aI11
aI11
aI11
aI10
aI8
aI6
aI12
aI8
aI6
aI3
aI4
aI10
aI3
aI6
aI11
aI1
aI11
aI12
aI8
aI6
aI8
aI8
aI8
aI11
aI5
aI1
aI4
aI1
aI5
aI12
aI2
aI5
aI7
aI5
aI12
aI12
aI8
aI11
aI8
aI7
aI3
aI2
aI8
aI1
aI8
aI2
aI11
aI11
aI8
aI8
aI8
aI6
aI3
aI12
aI4
aI11
aI10
aI8
aI11
aI8
aI8
aI0
aI8
aI8
aI8
aI5
aI11
aI5
aI10
aI10
aI11
aI10
aI2
aI8
aI3
aI1
aI8
aI8
aI11
aI8
aI8
aI6
aI8
aI6
aI4
aI4
aI8
aI11
aI11
aI2
aI4
aI5
aI8
aI8
aI6
aI8
aI3
aI10
aI2
aI11
aI8
aI2
aI3
aI6
aI3
aI3
aI6
aI11
aI8
aI8
aI2
aI12
aI1
aI8
aI11
aI6
aI8
aI10
aI10
aI11
aI12
aI2
aI8
aI6
aI6
aI8
aI11
aI2
aI8
aI12
aI8
aI3
aI5
aI11
aI4
aI3
aI5
aI11
aI6
aI8
aI2
aI11
aI8
aI3
aI4
aI1
aI11
aI12
aI1
aI7
aI6
aI10
aI1
aI8
aI10
aI4
aI8
aI8
aI5
aI8
aI10
aI6
aI11
aI8
aI8
aI8
aI8
aI3
aI3
aI11
aI11
aI11
aI8
aI3
aI12
aI2
aI5
aI4
aI2
aI6
aI8
aI8
aI11
aI4
aI11
aI11
aI8
aI11
aI5
aI6
aI8
aI5
aI8
aI11
aI8
aI10
aI10
aI8
aI11
aI7
aI5
aI12
aI12
aI11
aI8
aI10
aI8
aI11
aI8
aI2
aI8
aI8
aI4
aI8
aI4
aI4
aI12
aI11
aI8
aI12
aI11
aI10
aI2
aI7
aI11
aI8
aI8
aI11
aI8
aI4
aI6
aI10
aI6
aI12
aI8
aI11
aI6
aI10
aI10
aI12
aI8
aI11
aI11
aI11
aI11
aI4
aI10
aI3
aI8
aI12
aI6
aI11
aI7
aI10
aI10
aI1
aI12
aI6
aI8
aI7
aI11
aI10
aI10
aI6
aI6
aI12
aI8
aI12
aI4
aI12
aI12
aI10
aI8
aI10
aI8
aI10
aI2
aI8
aI5
aI11
aI8
aI12
aI4
aI8
aI4
aI8
aI8
aI7
aI3
aI2
aI8
aI2
aI4
aI12
aI3
aI3
aI8
aI3
aI4
aI11
aI8
aI8
aI12
aI8
aI8
aI8
aI7
aI5
aI8
aI0
aI8
aI10
aI8
aI10
aI12
aI6
aI6
aI8
aI12
aI2
aI8
aI7
aI11
aI2
aI5
aI8
aI5
aI2
aI4
aI8
aI3
aI8
aI11
aI3
aI5
aI12
aI8
aI11
aI11
aI2
aI11
aI11
aI2
aI8
aI8
aI1
aI5
aI8
aI12
aI3
aI4
aI8
aI3
aI8
aI8
aI11
aI5
aI7
aI6
aI6
aI12
aI7
aI10
aI8
aI8
aI10
aI6
aI6
aI7
aI3
aI8
aI0
aI12
aI7
aI5
aI0
aI5
aI10
aI3
aI3
aI6
aI6
aI11
aI8
aI8
aI3
aI1
aI6
aI4
aI3
aI11
aI8
aI10
aI8
aI8
aI5
aI8
aI10
aI4
aI8
aI10
aI5
aI11
aI8
aI11
aI8
aI8
aI8
aI3
aI3
aI8
aI4
aI6
aI2
aI7
aI8
aI8
aI11
aI5
aI6
aI7
aI11
aI11
aI3
aI8
aI2
aI10
aI8
aI4
aI8
aI11
aI12
aI8
aI6
aI11
aI8
aI8
aI8
aI8
aI6
aI12
aI8
aI8
aI6
aI0
aI2
aI11
aI4
aI6
aI2
aI8
aI11
aI3
aI11
aI11
aI11
aI3
aI10
aI8
aI5
aI3
aI10
aI11
aI11
aI1
aI8
aI11
aI8
aI4
aI2
aI6
aI11
aI7
aI3
aI4
aI8
aI6
aI11
aI4
aI8
aI3
aI11
aI12
aI6
aI7
aI1
aI12
aI8
aI8
aI5
aI8
aI6
aI11
aI8
aI5
aI11
aI6
aI2
aI3
aI2
aI8
aI11
aI7
aI6
aI11
aI7
aI8
aI11
aI12
aI2
aI7
aI12
aI8
aI6
aI6
aI4
aI2
aI10
aI7
aI12
aI8
aI2
aI8
aI1
aI7
aI8
aI2
aI8
aI8
aI8
aI3
aI8
aI4
aI11
aI2
aI8
aI5
aI10
aI10
aI2
aI1
aI11
aI8
aI6
aI11
aI6
aI10
aI12
aI10
aI8
aI4
aI4
aI12
aI2
aI0
aI11
aI8
aI8
aI8
aI4
aI8
aI8
aI6
aI5
aI8
aI11
aI8
aI11
aI2
aI5
aI8
aI12
aI5
aI8
aI11
aI8
aI11
aI10
aI8
aI3
aI3
aI4
aI6
aI3
aI8
aI8
aI11
aI7
aI11
aI2
aI3
aI5
aI11
aI7
aI3
aI11
aI11
aI1
aI3
aI6
aI8
aI11
aI11
aI6
aI5
aI6
aI11
aI8
aI11
aI1
aI2
aI4
aI8
aI8
aI8
aI5
aI10
aI5
aI5
aI11
aI8
aI11
aI11
aI1
aI10
aI12
aI4
aI4
aI0
aI3
aI8
aI8
aI2
aI12
aI5
aI8
aI8
aI11
aI8
aI6
aI2
aI2
aI11
aI6
aI3
aI4
aI12
aI6
aI11
aI11
aI3
aI5
aI8
aI4
aI12
aI10
aI3
aI4
aI3
aI11
aI12
aI8
aI8
aI4
aI6
aI8
aI12
aI3
aI7
aI7
aI8
aI4
aI8
aI7
aI3
aI5
aI4
aI4
aI11
aI8
aI3
aI8
aI12
aI4
aI6
aI10
aI8
aI4
aI11
aI10
aI1
aI10
aI4
aI1
aI8
aI2
aI12
aI8
aI7
aI11
aI11
aI5
aI8
aI12
aI8
aI2
aI8
aI3
aI8
aI2
aI10
aI2
aI12
aI3
aI8
aI4
aI10
aI11
aI8
aI12
aI5
aI11
aI8
aI3
aI5
aI2
aI11
aI0
aI3
aI2
aI8
aI4
aI8
aI5
aI2
aI3
aI8
aI3
aI4
aI8
aI2
aI8
aI6
aI10
aI8
aI0
aI6
aI11
aI12
aI8
aI10
aI6
aI6
aI11
aI4
aI8
aI7
aI6
aI10
aI10
aI8
aI3
aI7
aI6
aI8
aI6
aI2
aI0
aI8
aI7
aI11
aI10
aI5
aI5
aI11
aI10
aI11
aI4
aI6
aI4
aI3
aI11
aI3
aI11
aI3
aI11
aI6
aI8
aI10
aI11
aI7
aI3
aI2
aI10
aI8
aI11
aI11
aI2
aI11
aI8
aI8
aI8
aI5
aI5
aI12
aI12
aI11
aI12
aI11
aI11
aI8
aI10
aI8
aI12
aI8
aI4
aI8
aI2
aI3
aI3
aI4
aI11
aI8
aI4
aI12
aI3
aI3
aI6
aI10
aI2
aI11
aI4
aI11
aI3
aI1
aI3
aI11
aI10
aI8
aI11
aI1
aI6
aI8
aI7
aI8
aI8
aI12
aI6
aI12
aI4
aI8
aI10
aI10
aI6
aI3
aI10
aI5
aI12
aI3
aI4
aI7
aI11
aI12
aI11
aI3
aI8
aI6
aI3
aI8
aI1
aI8
aI11
aI11
aI11
aI8
aI4
aI12
aI3
aI6
aI2
aI8
aI12
aI6
aI5
aI8
aI1
aI5
aI8
aI11
aI4
aI6
aI8
aI8
aI2
aI11
aI6
aI11
aI5
aI8
aI5
aI7
aI11
aI11
aI12
aI11
aI11
aI8
aI4
aI11
aI3
aI6
aI11
aI8
aI8
aI1
aI8
aI2
aI2
aI11
aI8
aI11
aI8
aI6
aI8
aI12
aI6
aI6
aI8
aI4
aI1
aI12
aI8
aI6
aI3
aI4
aI2
aI8
aI8
aI11
aI11
aI11
aI8
aI4
aI4
aI8
aI7
aI10
aI3
aI1
aI10
aI2
aI2
aI12
aI4
aI6
aI7
aI8
aI11
aI8
aI3
aI11
aI10
aI8
aI11
aI11
aI6
aI3
aI4
aI2
aI11
aI5
aI12
aI8
aI8
aI2
aI8
aI8
aI8
aI8
aI5
aI2
aI10
aI6
aI6
aI7
aI11
aI2
aI11
aI3
aI3
aI10
aI5
aI8
aI8
aI11
aI3
aI8
aI11
aI6
aI2
aI5
aI12
aI7
aI5
aI8
aI8
aI3
aI3
aI2
aI1
aI11
aI10
aI10
aI12
aI8
aI8
aI8
aI4
aI11
aI11
aI7
aI8
aI11
aI12
aI12
aI4
aI10
aI3
aI6
aI10
aI2
aI12
aI2
aI11
aI4
aI3
aI5
aI11
aI3
aI8
aI11
aI10
aI11
aI1
aI11
aI6
aI11
aI2
aI8
aI11
aI12
aI12
aI5
aI8
aI7
aI5
aI6
aI10
aI10
aI11
aI8
aI10
aI2
aI10
aI8
aI5
aI11
aI8
aI8
aI11
aI1
aI3
aI5
aI8
aI4
aI11
aI8
aI8
aI12
aI7
aI8
aI4
aI6
aI12
aI3
aI8
aI12
aI2
aI2
aI11
aI8
aI11
aI8
aI11
aI12
aI2
aI8
aI4
aI7
aI7
aI5
aI8
aI10
aI6
aI12
aI4
aI3
aI7
aI6
aI2
aI8
aI10
aI4
aI4
aI8
aI7
aI11
aI8
aI3
aI12
aI11
aI10
aI8
aI8
aI11
aI7
aI11
aI8
aI2
aI8
aI11
aI2
aI11
aI3
aI3
aI10
aI11
aI6
aI7
aI6
aI11
aI11
aI7
aI4
aI6
aI5
aI8
aI6
aI8
aI8
aI5
aI8
aI6
aI7
aI7
aI10
aI12
aI2
aI11
aI8
aI4
aI11
aI4
aI2
aI12
aI6
aI7
aI7
aI2
aI3
aI8
aI2
aI2
aI11
aI8
aI12
aI8
aI12
aI3
aI7
aI5
aI12
aI10
aI2
aI1
aI10
aI6
aI4
aI3
aI5
aI4
aI8
aI10
aI0
aI8
aI2
aI11
aI11
aI12
aI11
aI4
aI2
aI3
aI4
aI8
aI8
aI2
aI12
aI3
aI8
aI12
aI8
aI2
aI4
aI4
aI8
aI1
aI7
aI2
aI2
aI2
aI6
aI8
aI4
aI8
aI8
aI10
aI8
aI11
aI11
aI6
aI11
aI8
aI12
aI3
aI7
aI8
aI11
aI7
aI11
aI3
aI11
aI2
aI8
aI12
aI6
aI5
aI11
aI11
aI10
aI11
aI11
aI4
aI2
aI11
aI8
aI0
aI11
aI8
aI4
aI6
aI10
aI3
aI8
aI10
aI12
aI2
aI12
aI6
aI12
aI8
aI4
aI5
aI2
aI7
aI11
aI8
aI12
aI2
aI8
aI3
aI8
aI8
aI11
aI11
aI1
aI6
aI8
aI5
aI8
aI0
aI11
aI11
aI4
aI6
aI8
aI8
aI11
aI11
aI12
aI0
aI10
aI8
aI11
aI2
aI6
aI12
aI6
aI8
aI12
aI1
aI10
aI8
aI11
aI8
aI10
aI5
aI10
aI6
aI4
aI5
aI10
aI2
aI1
aI11
aI8
aI11
aI7
aI10
aI0
aI12
aI8
aI8
aI6
aI3
aI3
aI6
aI8
aI5
aI4
aI6
aI11
aI6
aI8
aI8
aI3
aI8
aI12
aI4
aI1
aI11
aI10
aI11
aI2
aI3
aI8
aI8
aI8
aI11
aI6
aI11
aI4
aI3
aI2
aI11
aI2
aI8
aI7
aI8
aI8
aI8
aI12
aI2
aI4
aI5
aI2
aI10
aI11
aI8
aI11
aI8
aI8
aI12
aI2
aI8
aI4
aI8
aI11
aI11
aI6
aI5
aI11
aI7
aI1
aI11
aI5
aI12
aI8
aI10
aI6
aI5
aI11
aI11
aI8
aI4
aI8
aI11
aI6
aI3
aI12
aI0
aI11
aI4
aI11
aI12
aI12
aI3
aI8
aI8
aI3
aI10
aI8
aI3
aI4
aI8
aI6
aI7
aI8
aI6
aI2
aI10
aI4
aI11
aI8
aI5
aI5
aI8
aI1
aI4
aI8
aI2
aI11
aI6
aI10
aI8
aI8
aI8
aI7
aI5
aI12
aI6
aI6
aI10
aI3
aI8
aI11
aI6
aI8
aI6
aI8
aI5
aI11
aI4
aI11
aI8
aI11
aI8
aI8
aI2
aI8
aI8
aI8
aI8
aI8
aI11
aI7
aI8
aI11
aI10
aI4
aI3
aI8
aI8
aI12
aI2
aI12
aI4
aI8
aI2
aI4
aI8
aI12
aI10
aI7
aI5
aI8
aI2
aI11
aI5
aI10
aI2
aI5
aI4
aI12
aI7
aI8
aI12
aI8
aI10
aI8
aI5
aI11
aI12
aI11
aI2
aI3
aI8
aI12
aI2
aI8
aI8
aI5
aI7
aI11
aI11
aI8
aI8
aI2
aI11
aI5
aI8
aI11
aI12
aI8
aI8
aI12
aI4
aI11
aI8
aI8
aI2
aI2
aI6
aI11
aI6
aI10
aI3
aI11
aI10
aI4
aI8
aI3
aI8
aI8
aI8
aI8
aI2
aI11
aI8
aI8
aI6
aI8
aI8
aI8
aI11
aI5
aI6
aI11
aI8
aI11
aI8
aI8
aI10
aI6
aI10
aI10
aI8
aI10
aI11
aI11
aI11
aI11
aI5
aI1
aI6
aI3
aI8
aI4
aI5
aI4
aI6
aI2
aI12
aI11
aI12
aI8
aI4
aI10
aI2
aI3
aI10
aI12
aI5
aI10
aI11
aI8
aI12
aI11
aI8
aI11
aI4
aI11
aI8
aI4
aI2
aI8
aI4
aI11
aI4
aI8
aI4
aI8
aI4
aI10
aI8
aI8
aI12
aI6
aI11
aI8
aI0
aI11
aI8
aI8
aI11
aI5
aI12
aI11
aI12
aI3
aI8
aI8
aI4
aI6
aI2
aI2
aI8
aI12
aI2
aI6
aI8
aI3
aI3
aI4
aI11
aI3
aI12
aI8
aI11
aI11
aI2
aI8
aI8
aI5
aI11
aI5
aI10
aI1
aI12
aI8
aI8
aI3
aI8
aI8
aI0
aI6
aI12
aI8
aI5
aI4
aI8
aI3
aI5
aI3
aI3
aI10
aI11
aI11
aI8
aI3
aI7
aI8
aI6
aI11
aI6
aI8
aI6
aI1
aI8
aI8
aI8
aI10
aI7
aI2
aI5
aI8
aI6
aI8
aI12
aI6
aI10
aI8
aI3
aI8
aI10
aI8
aI8
aI12
aI1
aI5
aI4
aI11
aI8
aI8
aI7
aI12
aI8
aI8
aI2
aI8
aI4
aI8
aI5
aI6
aI8
aI10
aI8
aI10
aI2
aI7
aI11
aI3
aI8
aI1
aI1
aI8
aI11
aI12
aI8
aI8
aI12
aI2
aI11
aI6
aI8
aI5
aI5
aI8
aI11
aI10
aI8
aI2
aI8
aI12
aI11
aI8
aI11
aI6
aI12
aI4
aI10
aI12
aI8
aI2
aI6
aI4
aI6
aI2
aI11
aI10
aI8
aI8
aI2
aI4
aI4
aI2
aI11
aI8
aI6
aI4
aI4
aI8
aI2
aI11
aI0
aI11
aI8
aI8
aI4
aI11
aI12
aI2
aI6
aI1
aI2
aI7
aI6
aI12
aI8
aI11
aI8
aI8
aI1
aI10
aI11
aI0
aI10
aI11
aI11
aI3
aI4
aI10
aI6
aI11
aI10
aI6
aI6
aI11
aI6
aI5
aI6
aI3
aI3
aI11
aI4
aI11
aI11
aI8
aI8
aI2
aI10
aI5
aI8
aI10
aI8
aI0
aI12
aI11
aI7
aI11
aI11
aI11
aI6
aI11
aI12
aI4
aI8
aI8
aI6
aI10
aI12
aI8
aI12
aI4
aI4
aI8
aI10
aI2
aI4
aI7
aI8
aI6
aI1
aI6
aI11
aI0
aI8
aI11
aI10
aI2
aI12
aI0
aI8
aI2
aI11
aI11
aI8
aI5
aI12
aI12
aI3
aI8
aI2
aI6
aI11
aI12
aI6
aI8
aI1
aI2
aI6
aI12
aI4
aI4
aI12
aI12
aI7
aI3
aI11
aI8
aI6
aI6
aI8
aI11
aI11
aI3
aI6
aI4
aI12
aI8
aI8
aI6
aI12
aI12
aI8
aI4
aI3
aI6
aI8
aI11
aI11
aI7
aI6
aI8
aI11
aI4
aI10
aI6
aI8
aI11
aI2
aI10
aI8
aI12
aI5
aI7
aI11
aI4
aI0
aI2
aI12
aI4
aI3
aI6
aI6
aI8
aI11
aI8
aI3
aI2
aI11
aI10
aI7
aI8
aI6
aI8
aI12
aI3
aI10
aI5
aI1
aI3
aI5
aI11
aI11
aI12
aI0
aI8
aI4
aI8
aI8
aI11
aI12
aI7
aI4
aI6
aI5
aI8
aI11
aI8
aI6
aI4
aI11
aI3
aI10
aI8
aI6
aI3
aI5
aI2
aI8
aI7
aI8
aI8
aI11
aI6
aI6
aI11
aI3
aI5
aI8
aI3
aI4
aI2
aI11
aI10
aI12
aI3
aI5
aI7
aI8
aI8
aI5
aI8
aI5
aI4
aI12
aI4
aI11
aI5
aI2
aI4
aI12
aI10
aI11
aI11
aI10
aI8
aI6
aI3
aI12
aI8
aI8
aI1
aI6
aI12
aI7
aI6
aI11
aI6
aI7
aI10
aI11
aI7
aI4
aI8
aI8
aI0
aI11
aI8
aI8
aI7
aI12
aI6
aI12
aI4
aI6
aI6
aI10
aI11
aI2
aI12
aI2
aI7
aI7
aI8
aI11
aI2
aI6
aI11
aI4
aI8
aI8
aI11
aI8
aI8
aI8
aI0
aI10
aI8
aI12
aI6
aI11
aI8
aI10
aI5
aI11
aI8
aI12
aI11
aI11
aI7
aI12
aI2
aI6
aI8
aI11
aI4
aI8
aI10
aI6
aI11
aI11
aI10
aI6
aI8
aI8
aI11
aI6
aI8
aI8
aI5
aI11
aI11
aI6
aI8
aI7
aI12
aI2
aI8
aI12
aI8
aI8
aI6
aI8
aI4
aI10
aI0
aI12
aI11
aI11
aI10
aI8
aI6
aI8
aI11
aI1
aI1
aI2
aI2
aI8
aI3
aI11
aI8
aI3
aI10
aI8
aI11
aI8
aI11
aI2
aI3
aI6
aI2
aI4
aI2
aI8
aI4
aI2
aI8
aI12
aI7
aI6
aI8
aI4
aI8
aI7
aI3
aI11
aI8
aI8
aI3
aI10
aI11
aI8
aI6
aI0
aI8
aI2
aI8
aI5
aI4
aI6
aI11
aI11
aI12
aI8
aI6
aI8
aI4
aI3
aI12
aI11
aI8
aI4
aI3
aI2
aI12
aI12
aI11
aI11
aI11
aI11
aI8
aI11
aI10
aI11
aI11
aI11
aI10
aI11
aI8
aI7
aI11
aI8
aI4
aI5
aI8
aI10
aI6
aI8
aI11
aI8
aI11
aI11
aI8
aI12
aI8
aI11
aI8
aI11
aI11
aI12
aI11
aI4
aI11
aI10
aI8
aI1
aI11
aI3
aI8
aI6
aI3
aI8
aI4
aI6
aI12
aI12
aI8
aI11
aI11
aI8
aI5
aI2
aI8
aI5
aI8
aI6
aI12
aI12
aI2
aI2
aI2
aI12
aI11
aI8
aI4
aI4
aI5
aI2
aI11
aI8
aI11
aI8
aI4
aI5
aI10
aI11
aI7
aI8
aI5
aI12
aI8
aI10
aI0
aI6
aI3
aI2
aI2
aI4
aI8
aI11
aI4
aI1
aI4
aI3
aI5
aI12
aI11
aI3
aI11
aI3
aI6
aI10
aI8
aI8
aI12
aI8
aI11
aI8
aI4
aI8
aI8
aI10
aI10
aI4
aI8
aI4
aI1
aI5
aI6
aI12
aI2
aI5
aI10
aI8
aI1
aI4
aI11
aI4
aI3
aI5
aI2
aI11
aI8
aI11
aI11
aI8
aI8
aI11
aI8
aI12
aI8
aI10
aI8
aI1
aI2
aI8
aI6
aI4
aI2
aI10
aI5
aI11
aI5
aI3
aI3
aI8
aI0
aI4
aI6
aI11
aI8
aI6
aI12
aI4
aI12
aI3
aI8
aI3
aI2
aI4
aI1
aI8
aI10
aI11
aI12
aI8
aI3
aI5
aI11
aI11
aI6
aI12
aI3
aI8
aI11
aI3
aI3
aI11
aI5
aI8
aI12
aI1
aI7
aI6
aI11
aI6
aI2
aI12
aI8
aI8
aI11
aI12
aI12
aI10
aI4
aI5
aI8
aI11
aI4
aI12
aI8
aI11
aI5
aI8
aI6
aI12
aI5
aI10
aI10
aI8
aI3
aI4
aI11
aI11
aI12
aI8
aI11
aI7
aI8
aI6
aI12
aI8
aI2
aI2
aI11
aI7
aI6
aI6
aI8
aI8
aI6
aI4
aI10
aI8
aI6
aI8
aI8
aI11
aI4
aI5
aI2
aI3
aI2
aI11
aI8
aI10
aI1
aI4
aI11
aI8
aI8
aI6
aI7
aI3
aI11
aI8
aI8
aI6
aI10
aI4
aI8
aI10
aI7
aI11
aI7
aI8
aI10
aI8
aI7
aI1
aI6
aI5
aI5
aI8
aI12
aI2
aI8
aI8
aI11
aI11
aI12
aI8
aI11
aI8
aI10
aI5
aI8
aI11
aI3
aI10
aI11
aI6
aI11
aI10
aI10
aI11
aI11
aI6
aI11
aI8
aI7
aI8
aI2
aI7
aI10
aI12
aI4
aI7
aI3
aI8
aI8
aI8
aI3
aI4
aI12
aI5
aI11
aI6
aI5
aI8
aI10
aI8
aI5
aI8
aI4
aI11
aI5
aI11
aI6
aI4
aI11
aI7
aI8
aI5
aI10
aI7
aI10
aI2
aI10
aI4
aI8
aI8
aI8
aI8
aI12
aI5
aI11
aI10
aI2
aI8
aI5
aI12
aI11
aI2
aI11
aI8
aI2
aI8
aI11
aI8
aI3
aI3
aI3
aI7
aI12
aI8
aI7
aI7
aI3
aI5
aI4
aI6
aI8
aI11
aI8
aI5
aI4
aI1
aI5
aI8
aI8
aI0
aI4
aI6
aI12
aI11
aI2
aI7
aI8
aI6
aI11
aI5
aI1
aI8
aI4
aI12
aI0
aI3
aI11
aI8
aI5
aI2
aI7
aI10
aI5
aI11
aI4
aI2
aI8
aI8
aI12
aI8
aI12
aI4
aI6
aI11
aI2
aI2
aI5
aI7
aI2
aI8
aI8
aI11
aI3
aI8
aI7
aI8
aI5
aI12
aI8
aI10
aI7
aI6
aI2
aI4
aI8
aI12
aI12
aI10
aI7
aI11
aI7
aI5
aI4
aI7
aI3
aI11
aI12
aI12
aI12
aI7
aI8
aI8
aI5
aI7
aI11
aI12
aI8
aI8
aI2
aI3
aI8
aI8
aI5
aI4
aI4
aI8
aI2
aI4
aI8
aI2
aI8
aI8
aI12
aI10
aI8
aI3
aI11
aI8
aI3
aI12
aI10
aI6
aI12
aI11
aI11
aI10
aI3
aI11
aI4
aI11
aI8
aI1
aI5
aI7
aI10
aI11
aI11
aI12
aI11
aI11
aI6
aI6
aI3
aI3
aI8
aI8
aI11
aI11
aI4
aI8
aI7
aI6
aI6
aI2
aI2
aI3
aI8
aI10
aI7
aI8
aI2
aI11
aI11
aI11
aI11
aI11
aI5
aI7
aI8
aI8
aI8
aI4
aI8
aI1
aI12
aI12
aI4
aI11
aI11
aI2
aI3
aI2
aI12
aI5
aI11
aI10
aI8
aI3
aI2
aI5
aI8
aI12
aI11
aI5
aI7
aI2
aI2
aI6
aI0
aI8
aI6
aI11
aI7
aI8
aI6
aI11
aI11
aI8
aI4
aI8
aI8
aI4
aI12
aI5
aI8
aI6
aI2
aI12
aI3
aI6
aI11
aI2
aI3
aI8
aI8
aI4
aI7
aI8
aI5
aI2
aI6
aI11
aI5
aI8
aI11
aI11
aI4
aI8
aI3
aI2
aI8
aI12
aI3
aI10
aI4
aI11
aI8
aI8
aI1
aI3
aI2
aI4
aI6
aI4
aI4
aI8
aI2
aI12
aI12
aI11
aI8
aI8
aI12
aI3
aI4
aI8
aI8
aI2
aI12
aI2
aI8
aI2
aI11
aI7
aI11
aI8
aI8
aI8
aI2
aI7
aI11
aI7
aI8
aI3
aI12
aI12
aI11
aI12
aI5
aI11
aI8
aI5
aI10
aI8
aI11
aI12
aI8
aI5
aI8
aI11
aI3
aI11
aI10
aI8
aI7
aI10
aI8
aI10
aI5
aI8
aI7
aI11
aI3
aI4
aI11
aI11
aI11
aI3
aI12
aI7
aI11
aI8
aI8
aI2
aI3
aI11
aI12
aI5
aI3
aI12
aI11
aI8
aI12
aI11
aI7
aI2
aI5
aI11
aI6
aI8
aI6
aI11
aI8
aI11
aI7
aI8
aI2
aI3
aI8
aI8
aI2
aI3
aI1
aI8
aI5
aI7
aI4
aI12
aI8
aI8
aI7
aI8
aI8
aI8
aI8
aI3
aI3
aI11
aI12
aI3
aI8
aI8
aI3
aI2
aI12
aI2
aI11
aI4
aI2
aI2
aI7
aI4
aI2
aI4
aI6
aI12
aI11
aI8
aI7
aI1
aI8
aI7
aI3
aI8
aI8
aI12
aI12
aI8
aI8
aI6
aI10
aI8
aI6
aI11
aI6
aI11
aI7
aI8
aI8
aI1
aI0
aI3
aI0
aI12
aI11
aI1
aI11
aI11
aI4
aI12
aI10
aI6
aI6
aI10
aI2
aI8
aI3
aI4
aI12
aI7
aI8
aI8
aI12
aI3
aI8
aI12
aI4
aI4
aI3
aI3
aI3
aI8
aI8
aI8
aI4
aI8
aI0
aI10
aI11
aI5
aI6
aI7
aI11
aI12
aI12
aI8
aI3
aI11
aI8
aI8
aI12
aI5
aI3
aI5
aI3
aI5
aI4
aI11
aI11
aI6
aI3
aI8
aI4
aI10
aI7
aI8
aI4
aI6
aI8
aI8
aI8
aI8
aI8
aI3
aI1
aI11
aI11
aI10
aI6
aI3
aI8
aI12
aI7
aI6
aI8
aI5
aI7
aI3
aI3
aI7
aI11
aI2
aI11
aI12
aI6
aI11
aI11
aI6
aI6
aI8
aI8
aI3
aI6
aI11
aI3
aI12
aI4
aI2
aI7
aI6
aI11
aI8
aI2
aI8
aI2
aI8
aI4
aI4
aI11
aI11
aI8
aI10
aI1
aI2
aI3
aI6
aI8
aI10
aI8
aI2
aI2
aI3
aI2
aI3
aI11
aI11
aI1
aI7
aI1
aI2
aI11
aI6
aI8
aI8
aI8
aI2
aI8
aI12
aI11
aI11
aI6
aI12
aI11
aI2
aI12
aI8
aI4
aI3
aI2
aI11
aI8
aI8
aI8
aI8
aI11
aI4
aI7
aI6
aI11
aI2
aI11
aI5
aI8
aI6
aI8
aI8
aI2
aI12
aI8
aI8
aI8
aI3
aI2
aI8
aI4
aI11
aI11
aI8
aI6
aI11
aI4
aI8
aI12
aI8
aI2
aI10
aI10
aI8
aI11
aI8
aI3
aI8
aI6
aI7
aI3
aI2
aI5
aI10
aI11
aI6
aI12
aI2
aI3
aI11
aI3
aI11
aI7
aI8
aI1
aI11
aI3
aI12
aI8
aI2
aI8
aI8
aI1
aI2
aI2
aI11
aI2
aI6
aI11
aI11
aI8
aI5
aI6
aI2
aI3
aI8
aI11
aI11
aI5
aI8
aI8
aI8
aI11
aI5
aI11
aI2
aI12
aI3
aI11
aI11
aI6
aI8
aI6
aI5
aI0
aI8
aI8
aI11
aI11
aI8
aI12
aI11
aI6
aI11
aI8
aI3
aI11
aI2
aI8
aI2
aI11
aI6
aI11
aI6
aI12
aI8
aI10
aI4
aI6
aI12
aI6
aI4
aI6
aI8
aI8
aI2
aI4
aI4
aI8
aI11
aI2
aI3
aI7
aI4
aI11
aI8
aI8
aI8
aI6
aI12
aI2
aI8
aI4
aI8
aI1
aI4
aI11
aI10
aI10
aI6
aI8
aI6
aI10
aI0
aI5
aI7
aI2
aI11
aI5
aI11
aI7
aI7
aI11
aI8
aI3
aI2
aI11
aI7
aI5
aI5
aI2
aI11
aI6
aI11
aI2
aI12
aI6
aI10
aI12
aI10
aI8
aI11
aI12
aI7
aI4
aI8
aI2
aI12
aI6
aI8
aI3
aI3
aI2
aI3
aI4
aI8
aI11
aI4
aI12
aI7
aI8
aI7
aI4
aI8
aI2
aI6
aI2
aI11
aI8
aI8
aI8
aI11
aI8
aI11
aI11
aI12
aI11
aI4
aI8
aI12
aI11
aI8
aI6
aI3
aI8
aI5
aI11
aI2
aI7
aI2
aI6
aI8
aI8
aI8
aI11
aI6
aI7
aI12
aI2
aI8
aI3
aI5
aI10
aI8
aI5
aI12
aI12
aI11
aI5
aI6
aI4
aI12
aI10
aI11
aI8
aI10
aI10
aI5
aI4
aI2
aI4
aI11
aI5
aI11
aI4
aI8
aI8
aI11
aI11
aI11
aI11
aI8
aI11
aI12
aI5
aI12
aI10
aI7
aI3
aI12
aI6
aI8
aI2
aI8
aI12
aI12
aI2
aI8
aI6
aI3
aI8
aI12
aI8
aI8
aI7
aI11
aI6
aI6
aI11
aI6
aI11
aI11
aI7
aI10
aI10
aI8
aI1
aI8
aI12
aI10
aI8
aI10
aI5
aI10
aI8
aI6
aI8
aI10
aI10
aI4
aI12
aI8
aI12
aI8
aI11
aI6
aI8
aI3
aI11
aI11
aI8
aI11
aI5
aI1
aI8
aI11
aI8
aI2
aI11
aI8
aI4
aI5
aI5
aI12
aI8
aI11
aI6
aI12
aI1
aI7
aI11
aI4
aI2
aI11
aI6
aI6
aI10
aI7
aI8
aI11
aI8
aI7
aI11
aI11
aI4
aI11
aI5
aI4
aI11
aI11
aI8
aI8
aI12
aI5
aI11
aI8
aI7
aI11
aI11
aI8
aI7
aI10
aI5
aI6
aI12
aI10
aI11
aI4
aI11
aI12
aI8
aI10
aI6
aI12
aI2
aI11
aI5
aI11
aI12
aI11
aI11
aI6
aI4
aI8
aI4
aI11
aI6
aI6
aI12
aI12
aI3
aI3
aI6
aI12
aI8
aI8
aI8
aI4
aI8
aI8
aI8
aI2
aI6
aI10
aI11
aI8
aI8
aI8
aI2
aI6
aI10
aI8
aI8
aI8
aI8
aI6
aI4
aI6
aI12
aI4
aI3
aI8
aI10
aI4
aI4
aI8
aI3
aI8
aI7
aI11
aI2
aI2
aI2
aI3
aI3
aI5
aI8
aI10
aI8
aI4
aI6
aI0
aI8
aI8
aI3
aI6
aI6
aI8
aI4
aI8
aI6
aI3
aI12
aI11
aI2
aI8
aI8
aI11
aI11
aI8
aI1
aI8
aI8
aI10
aI11
aI0
aI10
aI11
aI10
aI8
aI8
aI7
aI12
aI12
aI1
aI8
aI10
aI2
aI11
aI2
aI8
aI8
aI11
aI11
aI11
aI3
aI10
aI6
aI11
aI11
aI8
aI8
aI12
aI2
aI10
aI8
aI7
aI6
aI11
aI7
aI0
aI6
aI0
aI11
aI8
aI10
aI1
aI8
aI8
aI8
aI5
aI3
aI12
aI11
aI4
aI8
aI8
aI8
aI7
aI12
aI11
aI4
aI8
aI8
aI8
aI8
aI4
aI2
aI2
aI3
aI8
aI8
aI11
aI6
aI8
aI6
aI12
aI8
aI10
aI11
aI12
aI2
aI10
aI8
aI3
aI8
aI1
aI12
aI4
aI4
aI6
aI8
aI7
aI12
aI6
aI12
aI6
aI11
aI8
aI11
aI10
aI4
aI5
aI3
aI8
aI10
aI10
aI8
aI6
aI11
aI11
aI7
aI11
aI8
aI8
aI8
aI8
aI1
aI12
aI10
aI8
aI4
aI3
aI4
aI8
aI4
aI0
aI3
aI12
aI6
aI2
aI8
aI11
aI11
aI11
aI6
aI11
aI6
aI8
aI8
aI4
aI4
aI8
aI11
aI8
aI11
aI2
aI3
aI5
aI8
aI10
aI8
aI12
aI8
aI7
aI8
aI8
aI4
aI5
aI12
aI11
aI11
aI5
aI4
aI6
aI3
aI7
aI3
aI12
aI6
aI5
aI0
aI8
aI8
aI8
aI11
aI12
aI11
aI6
aI11
aI6
aI8
aI8
aI8
aI11
aI10
aI8
aI1
aI2
aI6
aI12
aI10
aI3
aI1
aI8
aI8
aI10
aI6
aI6
aI6
aI6
aI10
aI4
aI5
aI12
aI3
aI1
aI5
aI8
aI2
aI11
aI4
aI8
aI6
aI2
aI8
aI10
aI12
aI6
aI8
aI8
aI5
aI6
aI7
aI8
aI6
aI3
aI12
aI2
aI8
aI8
aI11
aI2
aI11
aI12
aI8
aI3
aI8
aI5
aI8
aI2
aI8
aI7
aI8
aI8
aI11
aI8
aI8
aI12
aI10
aI8
aI8
aI6
aI6
aI8
aI12
aI6
aI5
aI8
aI3
aI1
aI8
aI11
aI8
aI8
aI11
aI0
aI2
aI11
aI6
aI3
aI4
aI8
aI5
aI4
aI10
aI3
aI2
aI8
aI8
aI8
aI2
aI2
aI8
aI4
aI11
aI1
aI2
aI11
aI6
aI10
aI10
aI8
aI4
aI10
aI6
aI3
aI5
aI8
aI4
aI5
aI7
aI8
aI8
aI5
aI3
aI8
aI10
aI8
aI8
aI3
aI3
aI3
aI6
aI8
aI1
aI5
aI8
aI2
aI12
aI11
aI8
aI7
aI2
aI11
aI6
aI11
aI12
aI3
aI8
aI4
aI5
aI5
aI12
aI12
aI12
aI11
aI1
aI8
aI8
aI8
aI11
aI3
aI6
aI10
aI2
aI11
aI2
aI3
aI2
aI10
aI6
aI4
aI2
aI12
aI12
aI4
aI3
aI8
aI11
aI8
aI4
aI3
aI11
aI8
aI12
aI6
aI8
aI8
aI1
aI2
aI11
aI8
aI12
aI11
aI11
aI8
aI1
aI8
aI8
aI3
aI3
aI4
aI8
aI11
aI3
aI3
aI2
aI2
aI7
aI6
aI8
aI1
aI11
aI10
aI11
aI4
aI10
aI4
aI6
aI12
aI8
aI6
aI8
aI3
aI10
aI2
aI2
aI8
aI6
aI8
aI4
aI10
aI3
aI6
aI2
aI8
aI3
aI7
aI6
aI5
aI3
aI6
aI8
aI12
aI5
aI12
aI5
aI6
aI5
aI4
aI11
aI10
aI8
aI8
aI2
aI5
aI1
aI8
aI8
aI5
aI8
aI10
aI8
aI11
aI4
aI10
aI4
aI3
aI10
aI8
aI11
aI5
aI11
aI2
aI10
aI8
aI2
aI3
aI3
aI10
aI8
aI5
aI11
aI12
aI11
aI12
aI8
aI10
aI5
aI3
aI4
aI12
aI2
aI10
aI3
aI11
aI3
aI11
aI11
aI11
aI2
aI8
aI4
aI8
aI7
aI2
aI7
aI10
aI12
aI11
aI11
aI8
aI3
aI8
aI8
aI11
aI11
aI10
aI8
aI6
aI8
aI1
aI8
aI8
aI11
aI2
aI8
aI8
aI3
aI3
aI6
aI10
aI11
aI8
aI8
aI6
aI2
aI8
aI11
aI8
aI2
aI11
aI1
aI2
aI10
aI8
aI8
aI8
aI2
aI3
aI2
aI10
aI8
aI3
aI10
aI6
aI7
aI2
aI8
aI8
aI2
aI11
aI2
aI6
aI11
aI3
aI10
aI10
aI8
aI2
aI8
aI2
aI8
aI8
aI8
aI11
aI3
aI10
aI11
aI11
aI3
aI1
aI2
aI10
aI11
aI11
aI4
aI6
aI8
aI4
aI4
aI11
aI7
aI6
aI3
aI8
aI11
aI11
aI8
aI10
aI11
aI2
aI1
aI3
aI1
aI5
aI2
aI8
aI4
aI11
aI2
aI10
aI8
aI2
aI3
aI8
aI8
aI10
aI6
aI8
aI4
aI8
aI8
aI4
aI12
aI8
aI7
aI10
aI8
aI8
aI8
aI7
aI1
aI12
aI11
aI11
aI3
aI2
aI3
aI3
aI7
aI11
aI7
aI2
aI10
aI1
aI11
aI11
aI6
aI11
aI2
aI8
aI1
aI11
aI11
aI10
aI2
aI6
aI8
aI12
aI5
aI10
aI4
aI3
aI2
aI8
aI8
aI0
aI8
aI11
aI3
aI8
aI8
aI8
aI2
aI4
aI8
aI5
aI11
aI11
aI2
aI8
aI10
aI4
aI8
aI1
aI8
aI8
aI12
aI11
aI8
aI8
aI8
aI6
aI3
aI4
aI6
aI2
aI6
aI6
aI12
aI11
aI1
aI5
aI11
aI4
aI2
aI7
aI4
aI11
aI5
aI5
aI11
aI11
aI11
aI8
aI4
aI6
aI11
aI10
aI12
aI3
aI3
aI8
aI8
aI11
aI11
aI7
aI8
aI8
aI8
aI3
aI2
aI6
aI8
aI2
aI8
aI11
aI4
aI2
aI6
aI4
aI4
aI3
aI8
aI8
aI5
aI11
aI11
aI11
aI10
aI4
aI11
aI3
aI11
aI2
aI11
aI12
aI11
aI2
aI4
aI11
aI2
aI2
aI11
aI2
aI8
aI11
aI3
aI11
aI8
aI5
aI4
aI10
aI4
aI11
aI8
aI8
aI6
aI5
aI8
aI11
aI8
aI4
aI10
aI7
aI8
aI2
aI4
aI8
aI5
aI10
aI5
aI7
aI4
aI4
aI6
aI11
aI8
aI8
aI12
aI2
aI5
aI3
aI3
aI7
aI8
aI8
aI11
aI8
aI11
aI12
aI7
aI4
aI2
aI1
aI6
aI8
aI8
aI8
aI7
aI8
aI8
aI8
aI8
aI11
aI11
aI12
aI11
aI7
aI2
aI7
aI11
aI11
aI4
aI2
aI2
aI12
aI8
aI12
aI2
aI11
aI4
aI11
aI2
aI8
aI11
aI8
aI11
aI2
aI8
aI8
aI10
aI7
aI4
aI11
aI8
aI2
aI8
aI7
aI8
aI2
aI0
aI6
aI11
aI3
aI5
aI8
aI2
aI2
aI3
aI10
aI10
aI7
aI6
aI11
aI11
aI3
aI8
aI5
aI11
aI4
aI8
aI11
aI8
aI8
aI8
aI4
aI11
aI3
aI11
aI8
aI2
aI5
aI10
aI3
aI10
aI1
aI7
aI8
aI11
aI12
aI5
aI11
aI11
aI10
aI7
aI8
aI10
aI10
aI12
aI4
aI3
aI1
aI6
aI6
aI11
aI2
aI10
aI2
aI2
aI11
aI10
aI4
aI8
aI8
aI12
aI3
aI8
aI8
aI8
aI4
aI4
aI3
aI8
aI8
aI12
aI10
aI5
aI7
aI4
aI8
aI2
aI11
aI8
aI3
aI11
aI4
aI11
aI8
aI11
aI11
aI8
aI8
aI5
aI2
aI2
aI8
aI0
aI8
aI8
aI1
aI11
aI6
aI4
aI8
aI8
aI6
aI1
aI11
aI4
aI10
aI2
aI12
aI12
aI8
aI8
aI10
aI10
aI11
aI4
aI4
aI8
aI10
aI11
aI2
aI3
aI5
aI4
aI10
aI2
aI11
aI11
aI11
aI6
aI1
aI11
aI5
aI11
aI8
aI5
aI4
aI8
aI11
aI5
aI11
aI5
aI8
aI6
aI5
aI4
aI5
aI6
aI11
aI11
aI1
aI5
aI2
aI12
aI11
aI11
aI10
aI8
aI11
aI10
aI8
aI11
aI8
aI8
aI11
aI8
aI8
aI8
aI8
aI0
aI8
aI11
aI11
aI11
aI8
aI6
aI12
aI4
aI6
aI11
aI7
aI3
aI10
aI3
aI8
aI8
aI8
aI2
aI11
aI3
aI8
aI6
aI10
aI11
aI8
aI8
aI8
aI6
aI12
aI8
aI12
aI11
aI8
aI11
aI5
aI11
aI0
aI8
aI2
aI4
aI11
aI2
aI2
aI5
aI2
aI5
aI1
aI3
aI11
aI7
aI10
aI6
aI12
aI4
aI5
aI3
aI3
aI8
aI5
aI5
aI8
aI11
aI11
aI11
aI5
aI11
aI7
aI5
aI11
aI1
aI11
aI4
aI12
aI5
aI11
aI12
aI7
aI3
aI6
aI2
aI8
aI6
aI8
aI12
aI8
aI2
aI8
aI8
aI10
aI10
aI8
aI3
aI1
aI2
aI2
aI2
aI5
aI8
aI8
aI1
aI0
aI3
aI10
aI8
aI2
aI8
aI8
aI8
aI10
aI11
aI3
aI3
aI1
aI11
aI4
aI11
aI6
aI4
aI2
aI4
aI3
aI11
aI2
aI10
aI11
aI8
aI10
aI3
aI3
aI8
aI4
aI11
aI8
aI12
aI8
aI10
aI10
aI3
aI11
aI11
aI7
aI11
aI8
aI6
aI8
aI8
aI8
aI3
aI8
aI8
aI4
aI12
aI10
aI12
aI8
aI12
aI10
aI6
aI1
aI12
aI11
aI7
aI11
aI3
aI4
aI5
aI2
aI3
aI3
aI6
aI5
aI2
aI0
aI11
aI10
aI2
aI1
aI11
aI3
aI10
aI8
aI11
aI8
aI6
aI8
aI10
aI2
aI5
aI2
aI8
aI11
aI3
aI6
aI12
aI10
aI11
aI8
aI2
aI11
aI12
aI8
aI8
aI6
aI8
aI4
aI5
aI1
aI12
aI1
aI12
aI12
aI5
aI5
aI8
aI8
aI4
aI11
aI6
aI12
aI11
aI11
aI10
aI2
aI10
aI3
aI4
aI4
aI6
aI11
aI12
aI11
aI3
aI10
aI10
aI3
aI2
aI11
aI8
aI3
aI4
aI6
aI8
aI6
aI8
aI12
aI10
aI3
aI10
aI11
aI6
aI6
aI6
aI12
aI8
aI10
aI5
aI12
aI12
aI3
aI8
aI8
aI8
aI6
aI4
aI8
aI10
aI2
aI8
aI8
aI11
aI8
aI12
aI12
aI6
aI8
aI2
aI7
aI8
aI8
aI6
aI11
aI12
aI2
aI3
aI6
aI5
aI8
aI6
aI10
aI6
aI4
aI10
aI4
aI6
aI8
aI8
aI8
aI10
aI8
aI11
aI7
aI8
aI5
aI7
aI5
aI10
aI6
aI11
aI7
aI10
aI11
aI8
aI10
aI1
aI11
aI8
aI11
aI8
aI5
aI8
aI4
aI4
aI12
aI4
aI7
aI10
aI12
aI7
aI8
aI8
aI8
aI12
aI11
aI5
aI8
aI2
aI6
aI11
aI6
aI12
aI0
aI11
aI8
aI4
aI3
aI6
aI2
aI8
aI11
aI8
aI7
aI11
aI8
aI12
aI7
aI8
aI10
aI8
aI8
aI8
aI10
aI11
aI5
aI11
aI11
aI4
aI7
aI2
aI4
aI2
aI1
aI8
aI4
aI6
aI10
aI4
aI4
aI8
aI11
aI6
aI11
aI8
aI11
aI7
aI3
aI12
aI3
aI12
aI5
aI0
aI8
aI7
aI11
aI2
aI8
aI5
aI8
aI2
aI3
aI3
aI8
aI11
aI4
aI4
aI3
aI5
aI8
aI12
aI6
aI1
aI4
aI10
aI8
aI8
aI7
aI11
aI2
aI11
aI8
aI5
aI12
aI11
aI3
aI10
aI3
aI10
aI8
aI12
aI1
aI8
aI11
aI3
aI5
aI11
aI3
aI3
aI12
aI4
aI7
aI12
aI8
aI11
aI12
aI8
aI7
aI11
aI4
aI8
aI8
aI3
aI11
aI5
aI12
aI3
aI10
aI4
aI3
aI11
aI1
aI7
aI10
aI4
aI8
aI11
aI8
aI12
aI8
aI3
aI11
aI12
aI10
aI6
aI12
aI6
aI8
aI10
aI10
aI11
aI8
aI4
aI6
aI11
aI12
aI4
aI11
aI8
aI8
aI8
aI2
aI8
aI10
aI2
aI4
aI3
aI8
aI2
aI6
aI7
aI2
aI8
aI5
aI8
aI11
aI6
aI2
aI12
aI4
aI12
aI2
aI4
aI7
aI4
aI11
aI2
aI8
aI11
aI12
aI8
aI10
aI6
aI7
aI11
aI7
aI11
aI3
aI7
aI4
aI12
aI6
aI3
aI11
aI11
aI0
aI1
aI4
aI8
aI2
aI4
aI8
aI4
aI8
aI3
aI4
aI8
aI8
aI10
aI8
aI12
aI11
aI11
aI3
aI10
aI12
aI6
aI2
aI8
aI8
aI4
aI11
aI6
aI8
aI11
aI6
aI6
aI12
aI3
aI6
aI11
aI11
aI7
aI8
aI10
aI3
aI2
aI6
aI12
aI6
aI2
aI11
aI11
aI8
aI11
aI8
aI8
aI8
aI2
aI8
aI2
aI1
aI10
aI11
aI8
aI11
aI8
aI7
aI3
aI8
aI2
aI8
aI12
aI10
aI11
aI8
aI5
aI6
aI10
aI2
aI8
aI12
aI8
aI11
aI8
aI3
aI8
aI3
aI12
aI4
aI8
aI3
aI4
aI3
aI4
aI8
aI4
aI7
aI5
aI7
aI2
aI11
aI5
aI10
aI8
aI10
aI11
aI1
aI8
aI7
aI6
aI10
aI8
aI4
aI3
aI0
aI6
aI8
aI10
aI8
aI8
aI12
aI8
aI3
aI12
aI8
aI11
aI11
aI8
aI8
aI6
aI8
aI8
aI7
aI1
aI3
aI8
aI3
aI1
aI8
aI10
aI3
aI4
aI1
aI4
aI0
aI11
aI11
aI2
aI12
aI8
aI8
aI6
aI8
aI12
aI8
aI10
aI11
aI6
aI1
aI5
aI10
aI12
aI10
aI3
aI8
aI10
aI11
aI8
aI3
aI11
aI4
aI6
aI8
aI11
aI8
aI7
aI7
aI8
aI11
aI12
aI0
aI0
aI10
aI3
aI8
aI4
aI8
aI10
aI11
aI8
aI7
aI7
aI11
aI8
aI12
aI5
aI8
aI12
aI11
aI4
aI8
aI6
aI4
aI2
aI6
aI7
aI8
aI8
aI8
aI8
aI3
aI7
aI6
aI8
aI10
aI11
aI8
aI8
aI8
aI1
aI12
aI11
aI4
aI7
aI8
aI8
aI10
aI11
aI8
aI11
aI7
aI8
aI11
aI5
aI5
aI2
aI8
aI10
aI4
aI3
aI8
aI2
aI8
aI8
aI11
aI3
aI3
aI4
aI6
aI11
aI8
aI6
aI11
aI10
aI11
aI11
aI2
aI11
aI8
aI6
aI4
aI11
aI8
aI4
aI3
aI8
aI4
aI8
aI8
aI8
aI8
aI10
aI8
aI1
aI8
aI8
aI11
aI7
aI8
aI8
aI4
aI1
aI8
aI3
aI2
aI8
aI10
aI12
aI6
aI6
aI6
aI4
aI12
aI8
aI8
aI5
aI3
aI8
aI11
aI1
aI6
aI11
aI11
aI11
aI8
aI11
aI4
aI11
aI12
aI11
aI6
aI8
aI11
aI12
aI7
aI7
aI8
aI3
aI10
aI11
aI5
aI6
aI7
aI3
aI5
aI2
aI8
aI8
aI8
aI8
aI4
aI5
aI12
aI11
aI2
aI3
aI11
aI11
aI6
aI11
aI10
aI2
aI7
aI12
aI11
aI12
aI11
aI6
aI8
aI11
aI4
aI5
aI10
aI4
aI12
aI11
aI10
aI2
aI12
aI4
aI10
aI11
aI1
aI5
aI12
aI12
aI3
aI8
aI8
aI6
aI4
aI4
aI0
aI3
aI11
aI4
aI5
aI8
aI11
aI1
aI3
aI11
aI2
aI3
aI8
aI10
aI8
aI2
aI11
aI2
aI12
aI12
aI4
aI5
aI7
aI11
aI10
aI10
aI7
aI5
aI7
aI1
aI11
aI10
aI11
aI3
aI10
aI8
aI8
aI3
aI11
aI10
aI2
aI8
aI12
aI6
aI8
aI8
aI8
aI4
aI2
aI11
aI10
aI11
aI11
aI12
aI8
aI4
aI8
aI11
aI4
aI8
aI11
aI10
aI8
aI8
aI2
aI8
aI8
aI8
aI2
aI11
aI11
aI8
aI3
aI8
aI4
aI3
aI3
aI11
aI11
aI4
aI0
aI4
aI8
aI8
aI6
aI2
aI2
aI6
aI1
aI8
aI8
aI10
aI4
aI6
aI4
aI8
aI10
aI8
aI1
aI8
aI8
aI11
aI7
aI10
aI10
aI5
aI4
aI2
aI4
aI12
aI1
aI0
aI12
aI2
aI5
aI10
aI8
aI8
aI11
aI12
aI6
aI1
aI10
aI10
aI8
aI11
aI5
aI2
aI0
aI10
aI3
aI5
aI11
aI11
aI11
aI8
aI8
aI8
aI7
aI8
aI3
aI2
aI7
aI3
aI3
aI8
aI8
aI12
aI8
aI11
aI8
aI8
aI11
aI8
aI11
aI2
aI11
aI8
aI7
aI4
aI10
aI11
aI12
aI3
aI8
aI8
aI8
aI8
aI8
aI3
aI8
aI11
aI12
aI11
aI11
aI8
aI11
aI3
aI10
aI11
aI6
aI8
aI10
aI10
aI10
aI2
aI2
aI0
aI11
aI8
aI12
aI6
aI11
aI11
aI11
aI11
aI2
aI8
aI6
aI6
aI10
aI3
aI7
aI10
aI8
aI8
aI11
aI10
aI6
aI11
aI8
aI8
aI1
aI5
aI8
aI10
aI4
aI11
aI8
aI11
aI6
aI2
aI4
aI12
aI4
aI11
aI2
aI11
aI11
aI8
aI11
aI2
aI10
aI8
aI5
aI12
aI8
aI1
aI12
aI8
aI2
aI11
aI12
aI4
aI11
aI12
aI8
aI12
aI8
aI12
aI2
aI8
aI8
aI10
aI10
aI2
aI3
aI7
aI4
aI2
aI6
aI8
aI11
aI4
aI11
aI8
aI11
aI6
aI2
aI4
aI4
aI8
aI10
aI12
aI7
aI6
aI11
aI11
aI12
aI3
aI11
aI11
aI2
aI5
aI12
aI11
aI6
aI8
aI3
aI11
aI11
aI4
aI8
aI8
aI11
aI6
aI12
aI5
aI11
aI8
aI12
aI8
aI8
aI5
aI3
aI4
aI1
aI2
aI7
aI11
aI2
aI8
aI6
aI8
aI5
aI8
aI1
aI11
aI6
aI8
aI11
aI11
aI10
aI11
aI7
aI7
aI7
aI2
aI10
aI11
aI8
aI8
aI12
aI8
aI11
aI2
aI11
aI5
aI6
aI2
aI10
aI10
aI12
aI2
aI8
aI2
aI4
aI7
aI3
aI8
aI7
aI8
aI4
aI2
aI2
aI12
aI8
aI8
aI4
aI6
aI8
aI2
aI6
aI5
aI8
aI7
aI3
aI8
aI5
aI8
aI6
aI7
aI8
aI8
aI8
aI10
aI6
aI8
aI10
aI8
aI8
aI4
aI4
aI12
aI8
aI10
aI5
aI8
aI8
aI3
aI8
aI7
aI3
aI10
aI5
aI4
aI8
aI4
aI4
aI11
aI5
aI8
aI12
aI11
aI2
aI10
aI8
aI8
aI11
aI8
aI6
aI8
aI10
aI10
aI11
aI10
aI11
aI4
aI4
aI5
aI8
aI7
aI7
aI10
aI11
aI7
aI11
aI11
aI7
aI11
aI7
aI3
aI10
aI8
aI11
aI5
aI12
aI8
aI12
aI8
aI12
aI5
aI10
aI10
aI10
aI10
aI6
aI7
aI11
aI5
aI8
aI8
aI11
aI10
aI4
aI10
aI4
aI11
aI12
aI8
aI3
aI10
aI12
aI8
aI10
aI7
aI12
aI2
aI4
aI10
aI4
aI11
aI6
aI12
aI7
aI11
aI10
aI5
aI4
aI6
aI11
aI3
aI8
aI8
aI11
aI12
aI11
aI6
aI7
aI10
aI10
aI8
aI4
aI10
aI5
aI3
aI10
aI4
aI12
aI8
aI11
aI10
aI8
aI2
aI3
aI2
aI11
aI8
aI11
aI6
aI8
aI7
aI4
aI11
aI2
aI11
aI11
aI8
aI12
aI0
aI8
aI4
aI3
aI11
aI4
aI6
aI12
aI8
aI10
aI11
aI11
aI11
aI8
aI8
aI8
aI3
aI8
aI11
aI7
aI11
aI11
aI5
aI11
aI11
aI3
aI4
aI4
aI8
aI1
aI8
aI1
aI7
aI6
aI3
aI8
aI8
aI3
aI11
aI3
aI3
aI1
aI6
aI10
aI1
aI6
aI3
aI8
aI2
aI8
aI11
aI11
aI3
aI6
aI8
aI4
aI12
aI6
aI11
aI3
aI4
aI11
aI11
aI3
aI11
aI12
aI8
aI3
aI2
aI8
aI8
aI8
aI5
aI6
aI1
aI8
aI1
aI4
aI11
aI4
aI11
aI6
aI8
aI12
aI10
aI8
aI3
aI11
aI2
aI8
aI2
aI8
aI4
aI5
aI3
aI2
aI10
aI3
aI11
aI6
aI6
aI6
aI11
aI10
aI1
aI11
aI8
aI2
aI12
aI5
aI3
aI3
aI4
aI6
aI7
aI3
aI2
aI8
aI6
aI8
aI4
aI6
aI3
aI5
aI2
aI11
aI11
aI8
aI4
aI0
aI8
aI11
aI4
aI7
aI4
aI10
aI10
aI8
aI3
aI4
aI2
aI6
aI8
aI10
aI11
aI11
aI8
aI10
aI11
aI11
aI8
aI12
aI3
aI5
aI8
aI3
aI11
aI12
aI8
aI4
aI8
aI12
aI3
aI8
aI11
aI6
aI8
aI2
aI3
aI12
aI11
aI2
aI7
aI8
aI8
aI2
aI7
aI12
aI2
aI8
aI2
aI7
aI8
aI4
aI2
aI6
aI11
aI8
aI8
aI10
aI5
aI10
aI8
aI8
aI10
aI3
aI12
aI11
aI7
aI4
aI11
aI8
aI3
aI0
aI7
aI4
aI12
aI1
aI8
aI0
aI10
aI10
aI10
aI8
aI12
aI11
aI6
aI12
aI2
aI3
aI8
aI10
aI11
aI12
aI5
aI2
aI12
aI6
aI2
aI8
aI4
aI3
aI5
aI7
aI11
aI6
aI11
aI11
aI2
aI11
aI3
aI3
aI10
aI0
aI7
aI5
aI11
aI0
aI12
aI6
aI12
aI11
aI10
aI3
aI3
aI8
aI10
aI3
aI11
aI6
aI11
aI1
aI6
aI12
aI3
aI12
aI12
aI3
aI4
aI11
aI3
aI8
aI4
aI8
aI5
aI3
aI6
aI10
aI7
aI7
aI10
aI8
aI6
aI8
aI6
aI7
aI6
aI10
aI6
aI4
aI8
aI5
aI10
aI11
aI11
aI8
aI8
aI8
aI8
aI8
aI11
aI6
aI8
aI3
aI12
aI5
aI10
aI8
aI10
aI8
aI11
aI12
aI10
aI12
aI11
aI5
aI2
aI6
aI8
aI4
aI3
aI4
aI4
aI8
aI7
aI11
aI3
aI2
aI8
aI4
aI8
aI10
aI8
aI11
aI1
aI4
aI10
aI7
aI8
aI8
aI11
aI12
aI11
aI8
aI4
aI12
aI8
aI8
aI5
aI8
aI8
aI4
aI5
aI8
aI3
aI5
aI8
aI2
aI8
aI5
aI8
aI3
aI5
aI8
aI11
aI6
aI8
aI12
aI3
aI5
aI8
aI8
aI11
aI8
aI8
aI8
aI6
aI11
aI11
aI5
aI11
aI7
aI5
aI4
aI4
aI2
aI4
aI6
aI7
aI1
aI6
aI12
aI8
aI11
aI10
aI2
aI2
aI8
aI12
aI11
aI11
aI5
aI10
aI8
aI8
aI10
aI5
aI11
aI4
aI6
aI3
aI8
aI8
aI11
aI8
aI11
aI10
aI4
aI4
aI3
aI12
aI7
aI3
aI10
aI8
aI10
aI8
aI2
aI8
aI12
aI12
aI4
aI7
aI11
aI4
aI11
aI10
aI4
aI8
aI8
aI2
aI12
aI4
aI10
aI6
aI6
aI1
aI11
aI2
aI7
aI3
aI11
aI10
aI11
aI8
aI2
aI4
aI12
aI2
aI2
aI6
aI10
aI12
aI4
aI11
aI4
aI5
aI8
aI8
aI2
aI8
aI11
aI10
aI11
aI12
aI6
aI12
aI8
aI11
aI8
aI7
aI8
aI10
aI6
aI5
aI10
aI12
aI8
aI6
aI12
aI7
aI2
aI8
aI11
aI6
aI8
aI10
aI7
aI8
aI8
aI7
aI11
aI5
aI3
aI11
aI6
aI5
aI6
aI4
aI3
aI8
aI11
aI8
aI10
aI4
aI8
aI11
aI12
aI8
aI3
aI1
aI7
aI7
aI2
aI11
aI11
aI10
aI6
aI7
aI8
aI12
aI12
aI8
aI6
aI12
aI8
aI6
aI11
aI8
aI5
aI5
aI8
aI6
aI3
aI2
aI5
aI8
aI4
aI12
aI8
aI8
aI6
aI3
aI11
aI6
aI8
aI8
aI8
aI4
aI3
aI12
aI10
aI4
aI12
aI5
aI8
aI4
aI11
aI8
aI12
aI8
aI11
aI2
aI6
aI11
aI11
aI11
aI8
aI12
aI7
aI5
aI8
aI11
aI6
aI1
aI11
aI11
aI10
aI11
aI12
aI8
aI8
aI8
aI2
aI8
aI11
aI12
aI12
aI11
aI8
aI5
aI7
aI10
aI10
aI8
aI11
aI3
aI8
aI11
aI4
aI3
aI4
aI10
aI8
aI6
aI11
aI12
aI2
aI2
aI8
aI5
aI3
aI12
aI12
aI11
aI11
aI2
aI6
aI12
aI8
aI8
aI8
aI8
aI2
aI11
aI8
aI11
aI10
aI10
aI6
aI5
aI12
aI0
aI8
aI2
aI5
aI12
aI5
aI10
aI5
aI7
aI4
aI4
aI8
aI8
aI12
aI8
aI3
aI11
aI11
aI8
aI10
aI4
aI8
aI11
aI8
aI7
aI11
aI8
aI2
aI6
aI2
aI3
aI5
aI4
aI8
aI6
aI10
aI6
aI8
aI6
aI11
aI8
aI11
aI12
aI8
aI4
aI4
aI8
aI3
aI8
aI8
aI6
aI10
aI3
aI12
aI10
aI8
aI11
aI10
aI3
aI2
aI6
aI0
aI5
aI4
aI6
aI11
aI3
aI11
aI8
aI6
aI6
aI12
aI6
aI5
aI11
aI8
aI6
aI4
aI11
aI11
aI4
aI5
aI7
aI6
aI8
aI8
aI6
aI11
aI11
aI12
aI8
aI8
aI11
aI2
aI2
aI8
aI6
aI4
aI7
aI0
aI11
aI11
aI8
aI8
aI10
aI11
aI8
aI11
aI3
aI11
aI7
aI10
aI2
aI8
aI1
aI12
aI3
aI11
aI10
aI4
aI5
aI2
aI8
aI11
aI6
aI8
aI12
aI4
aI2
aI11
aI0
aI11
aI11
aI2
aI11
aI0
aI8
aI4
aI2
aI12
aI8
aI8
aI4
aI2
aI8
aI8
aI8
aI10
aI12
aI6
aI8
aI2
aI2
aI8
aI6
aI10
aI10
aI0
aI8
aI10
aI8
aI8
aI8
aI8
aI8
aI2
aI0
aI6
aI7
aI8
aI11
aI4
aI8
aI11
aI10
aI2
aI10
aI4
aI5
aI6
aI2
aI11
aI8
aI10
aI11
aI7
aI8
aI11
aI12
aI8
aI8
aI4
aI11
aI12
aI4
aI8
aI6
aI11
aI12
aI11
aI11
aI4
aI3
aI2
aI12
aI8
aI12
aI8
aI5
aI6
aI11
aI4
aI6
aI4
aI12
aI8
aI11
aI11
aI11
aI11
aI4
aI8
aI11
aI8
aI1
aI12
aI2
aI1
aI5
aI11
aI4
aI11
aI11
aI11
aI3
aI12
aI10
aI4
aI10
aI4
aI8
aI11
aI11
aI3
aI8
aI6
aI10
aI8
aI6
aI5
aI8
aI6
aI3
aI12
aI1
aI3
aI5
aI11
aI8
aI2
aI11
aI8
aI11
aI3
aI2
aI8
aI10
aI12
aI8
aI12
aI2
aI2
aI8
aI8
aI6
aI7
aI1
aI3
aI8
aI8
aI12
aI8
aI3
aI8
aI8
aI2
aI8
aI12
aI8
aI4
aI11
aI12
aI10
aI8
aI7
aI5
aI6
aI0
aI2
aI8
aI4
aI4
aI6
aI11
aI2
aI8
aI12
aI8
aI12
aI8
aI12
aI3
aI6
aI2
aI10
aI8
aI11
aI11
aI1
aI1
aI3
aI10
aI2
aI7
aI8
aI3
aI10
aI11
aI2
aI2
aI8
aI11
aI8
aI4
aI11
aI5
aI11
aI11
aI10
aI2
aI12
aI8
aI2
aI8
aI10
aI8
aI7
aI11
aI5
aI11
aI10
aI10
aI11
aI12
aI4
aI3
aI8
aI8
aI11
aI5
aI3
aI3
aI6
aI8
aI11
aI8
aI8
aI5
aI5
aI3
aI8
aI7
aI11
aI11
aI4
aI8
aI8
aI8
aI8
aI8
aI8
aI6
aI4
aI11
aI11
aI8
aI5
aI8
aI8
aI3
aI3
aI10
aI8
aI6
aI4
aI8
aI8
aI4
aI11
aI11
aI8
aI10
aI8
aI3
aI3
aI8
aI8
aI12
aI6
aI12
aI5
aI7
aI8
aI2
aI6
aI2
aI2
aI3
aI8
aI6
aI4
aI11
aI8
aI11
aI11
aI8
aI8
aI8
aI6
aI0
aI11
aI2
aI4
aI2
aI4
aI12
aI12
aI12
aI7
aI10
aI8
aI8
aI6
aI2
aI10
aI6
aI8
aI11
aI6
aI6
aI1
aI12
aI8
aI8
aI2
aI7
aI1
aI1
aI11
aI8
aI8
aI7
aI11
aI7
aI8
aI5
aI6
aI8
aI8
aI11
aI8
aI11
aI8
aI8
aI6
aI12
aI6
aI4
aI5
aI8
aI8
aI8
aI8
aI8
aI8
aI8
aI11
aI11
aI10
aI12
aI8
aI12
aI2
aI8
aI8
aI4
aI2
aI4
aI6
aI8
aI11
aI2
aI5
aI4
aI10
aI10
aI10
aI2
aI7
aI10
aI8
aI6
aI12
aI10
aI4
aI8
aI7
aI12
aI11
aI6
aI2
aI12
aI8
aI11
aI3
aI8
aI8
aI8
aI11
aI7
aI12
aI1
aI4
aI12
aI3
aI6
aI7
aI8
aI11
aI5
aI2
aI8
aI7
aI8
aI11
aI2
aI7
aI11
aI8
aI8
aI6
aI2
aI12
aI11
aI12
aI5
aI4
aI5
aI11
aI11
aI7
aI11
aI6
aI4
aI8
aI3
aI3
aI2
aI8
aI11
aI6
aI4
aI1
aI3
aI1
aI8
aI11
aI8
aI12
aI11
aI10
aI8
aI6
aI3
aI11
aI4
aI7
aI5
aI8
aI8
aI8
aI12
aI7
aI0
aI7
aI11
aI7
aI4
aI1
aI11
aI6
aI10
aI11
aI8
aI10
aI6
aI8
aI6
aI6
aI11
aI2
aI11
aI11
aI0
aI3
aI8
aI10
aI5
aI12
aI10
aI4
aI3
aI8
aI4
aI4
aI8
aI4
aI10
aI8
aI10
aI8
aI11
aI8
aI8
aI12
aI5
aI8
aI4
aI8
aI4
aI7
aI12
aI8
aI5
aI8
aI11
aI11
aI11
aI10
aI5
aI12
aI2
aI8
aI11
aI12
aI11
aI2
aI12
aI11
aI11
aI8
aI7
aI11
aI8
aI11
aI11
aI7
aI6
aI8
aI4
aI3
aI10
aI2
aI8
aI2
aI5
aI3
aI11
aI3
aI8
aI11
aI6
aI5
aI12
aI6
aI2
aI2
aI10
aI1
aI4
aI12
aI3
aI8
aI6
aI8
aI3
aI6
aI5
aI2
aI10
aI5
aI12
aI8
aI11
aI8
aI4
aI8
aI12
aI10
aI8
aI11
aI3
aI8
aI2
aI4
aI11
aI5
aI3
aI11
aI11
aI7
aI8
aI4
aI7
aI6
aI4
aI8
aI2
aI11
aI7
aI1
aI1
aI7
aI8
aI3
aI10
aI8
aI2
aI6
aI8
aI3
aI8
aI8
aI7
aI11
aI5
aI12
aI11
aI8
aI8
aI4
aI7
aI3
aI5
aI4
aI6
aI8
aI5
aI11
aI4
aI11
aI11
aI11
aI8
aI4
aI4
aI7
aI8
aI6
aI8
aI10
aI12
aI2
aI8
aI10
aI8
aI11
aI12
aI8
aI5
aI3
aI12
aI8
aI2
aI4
aI11
aI7
aI8
aI10
aI6
aI3
aI8
aI12
aI8
aI11
aI8
aI2
aI7
aI7
aI12
aI8
aI11
aI6
aI4
aI11
aI2
aI6
aI8
aI8
aI8
aI8
aI10
aI8
aI10
aI3
aI2
aI2
aI5
aI8
aI7
aI11
aI7
aI2
aI11
aI10
aI2
aI1
aI2
aI0
aI8
aI8
aI8
aI8
aI5
aI1
aI12
aI11
aI4
aI8
aI3
aI5
aI8
aI3
aI2
aI7
aI12
aI11
aI8
aI8
aI11
aI12
aI8
aI11
aI12
aI7
aI8
aI8
aI8
aI11
aI3
aI12
aI4
aI11
aI6
aI10
aI10
aI8
aI11
aI10
aI4
aI6
aI3
aI11
aI6
aI10
aI12
aI10
aI3
aI1
aI8
aI8
aI6
aI1
aI8
aI6
aI11
aI12
aI8
aI5
aI5
aI8
aI10
aI4
aI6
aI11
aI7
aI3
aI4
aI8
aI4
aI12
aI8
aI4
aI4
aI10
aI8
aI4
aI11
aI11
aI8
aI8
aI8
aI4
aI2
aI11
aI3
aI10
aI1
aI10
aI3
aI3
aI3
aI8
aI1
aI6
aI8
aI12
aI4
aI2
aI0
aI10
aI1
aI4
aI8
aI8
aI10
aI8
aI8
aI4
aI6
aI11
aI12
aI8
aI10
aI10
aI8
aI8
aI4
aI3
aI8
aI4
aI5
aI11
aI11
aI8
aI12
aI7
aI12
aI8
aI7
aI8
aI8
aI4
aI10
aI8
aI3
aI11
aI11
aI8
aI3
aI8
aI12
aI3
aI8
aI8
aI4
aI2
aI11
aI8
aI7
aI3
aI7
aI5
aI8
aI8
aI8
aI8
aI8
aI12
aI12
aI2
aI2
aI3
aI3
aI8
aI3
aI6
aI6
aI10
aI4
aI2
aI8
aI6
aI7
aI2
aI8
aI10
aI11
aI10
aI3
aI8
aI4
aI6
aI8
aI10
aI2
aI1
aI11
aI12
aI11
aI11
aI6
aI5
aI5
aI12
aI11
aI11
aI3
aI6
aI11
aI5
aI7
aI11
aI8
aI10
aI8
aI8
aI10
aI3
aI2
aI11
aI11
aI4
aI6
aI4
aI8
aI8
aI8
aI10
aI8
aI4
aI12
aI12
aI2
aI3
aI11
aI11
aI11
aI2
aI4
aI4
aI10
aI8
aI10
aI6
aI11
aI10
aI11
aI2
aI11
aI11
aI4
aI8
aI8
aI7
aI12
aI2
aI11
aI8
aI10
aI10
aI5
aI8
aI8
aI11
aI8
aI7
aI11
aI12
aI11
aI12
aI8
aI2
aI4
aI6
aI10
aI6
aI8
aI6
aI11
aI7
aI11
aI2
aI10
aI11
aI6
aI7
aI5
aI8
aI10
aI3
aI2
aI8
aI8
aI11
aI8
aI2
aI3
aI12
aI6
aI5
aI5
aI12
aI8
aI8
aI8
aI11
aI11
aI6
aI8
aI12
aI10
aI12
aI8
aI12
aI3
aI8
aI5
aI8
aI11
aI11
aI7
aI2
aI11
aI11
aI1
aI12
aI3
aI4
aI12
aI5
aI3
aI8
aI5
aI6
aI2
aI10
aI11
aI10
aI6
aI7
aI8
aI2
aI8
aI12
aI8
aI3
aI8
aI8
aI10
aI8
aI6
aI2
aI3
aI2
aI10
aI3
aI2
aI7
aI2
aI3
aI11
aI6
aI10
aI10
aI6
aI6
aI11
aI3
aI11
aI10
aI4
aI4
aI5
aI3
aI8
aI11
aI8
aI4
aI8
aI5
aI8
aI8
aI11
aI1
aI11
aI6
aI12
aI2
aI12
aI6
aI7
aI10
aI10
aI4
aI8
aI8
aI3
aI8
aI6
aI4
aI5
aI6
aI8
aI8
aI11
aI8
aI8
aI3
aI12
aI11
aI4
aI2
aI7
aI12
aI7
aI3
aI3
aI4
aI6
aI0
aI8
aI1
aI7
aI4
aI11
aI7
aI2
aI8
aI7
aI11
aI3
aI8
aI8
aI5
aI4
aI8
aI11
aI8
aI3
aI11
aI7
aI2
aI8
aI10
aI8
aI6
aI3
aI7
aI5
aI8
aI8
aI6
aI8
aI8
aI4
aI12
aI7
aI4
aI2
aI7
aI11
aI6
aI4
aI11
aI8
aI5
aI11
aI4
aI2
aI8
aI8
aI6
aI11
aI2
aI7
aI2
aI12
aI7
aI2
aI2
aI8
aI11
aI3
aI10
aI6
aI0
aI3
aI11
aI8
aI11
aI2
aI10
aI1
aI11
aI6
aI8
aI4
aI2
aI2
aI2
aI11
aI8
aI6
aI12
aI1
aI2
aI11
aI11
aI8
aI1
aI8
aI11
aI8
aI8
aI5
aI11
aI8
aI6
aI8
aI4
aI12
aI12
aI7
aI12
aI6
aI8
aI8
aI10
aI8
aI8
aI8
aI12
aI7
aI4
aI8
aI3
aI7
aI11
aI8
aI12
aI4
aI3
aI4
aI3
aI11
aI8
aI8
aI6
aI8
aI3
aI11
aI2
aI3
aI5
aI8
aI8
aI3
aI11
aI11
aI8
aI2
aI1
aI11
aI8
aI11
aI3
aI11
aI11
aI12
aI8
aI12
aI7
aI7
aI8
aI8
aI11
aI11
aI5
aI8
aI5
aI7
aI8
aI12
aI5
aI8
aI4
aI8
aI3
aI6
aI12
aI7
aI11
aI8
aI8
aI11
aI8
aI4
aI4
aI2
aI10
aI8
aI8
aI8
aI12
aI2
aI11
aI10
aI12
aI12
aI2
aI2
aI11
aI11
aI0
aI11
aI5
aI11
aI10
aI2
aI1
aI12
aI2
aI11
aI8
aI3
aI8
aI1
aI8
aI12
aI6
aI8
aI4
aI8
aI8
aI6
aI7
aI10
aI6
aI11
aI8
aI11
aI0
aI4
aI3
aI12
aI7
aI0
aI12
aI4
aI11
aI8
aI11
aI12
aI3
aI12
aI10
aI1
aI12
aI11
aI8
aI2
aI11
aI8
aI6
aI0
aI3
aI8
aI10
aI10
aI11
aI11
aI8
aI12
aI8
aI2
aI12
aI2
aI5
aI2
aI8
aI11
aI6
aI5
aI4
aI7
aI8
aI8
aI11
aI12
aI8
aI11
aI10
aI8
aI12
aI8
aI11
aI11
aI10
aI8
aI2
aI8
aI10
aI6
aI8
aI0
aI3
aI11
aI8
aI8
aI8
aI12
aI3
aI6
aI8
aI10
aI8
aI12
aI12
aI11
aI8
aI11
aI7
aI11
aI5
aI1
aI8
aI11
aI1
aI8
aI8
aI10
aI3
aI10
aI6
aI8
aI12
aI3
aI12
aI11
aI7
aI5
aI12
aI11
aI7
aI4
aI4
aI2
aI12
aI6
aI3
aI11
aI4
aI8
aI5
aI8
aI8
aI12
aI8
aI8
aI8
aI11
aI11
aI11
aI11
aI4
aI4
aI8
aI8
aI5
aI8
aI7
aI12
aI8
aI11
aI11
aI8
aI5
aI8
aI8
aI8
aI12
aI8
aI8
aI8
aI8
aI11
aI11
aI5
aI12
aI8
aI10
aI8
aI12
aI2
aI11
aI6
aI8
aI2
aI10
aI8
aI2
aI2
aI12
aI8
aI8
aI10
aI2
aI2
aI4
aI4
aI8
aI2
aI4
aI5
aI12
aI2
aI8
aI12
aI3
aI10
aI10
aI8
aI10
aI6
aI7
aI12
aI8
aI12
aI3
aI8
aI11
aI8
aI11
aI8
aI8
aI2
aI3
aI2
aI11
aI11
aI3
aI8
aI6
aI8
aI7
aI11
aI11
aI8
aI10
aI7
aI11
aI12
aI3
aI4
aI11
aI8
aI8
aI8
aI5
aI12
aI11
aI8
aI4
aI8
aI3
aI2
aI8
aI10
aI3
aI8
aI8
aI8
aI10
aI2
aI7
aI4
aI11
aI11
aI11
aI2
aI10
aI8
aI8
aI11
aI8
aI8
aI1
aI8
aI6
aI10
aI8
aI7
aI12
aI8
aI11
aI4
aI2
aI8
aI3
aI12
aI11
aI11
aI4
aI10
aI11
aI3
aI3
aI11
aI2
aI3
aI4
aI11
aI7
aI8
aI11
aI8
aI5
aI12
aI2
aI6
aI2
aI5
aI7
aI10
aI7
aI11
aI11
aI11
aI5
aI3
aI5
aI11
aI2
aI3
aI12
aI12
aI8
aI11
aI8
aI11
aI4
aI3
aI11
aI4
aI5
aI8
aI12
aI8
aI7
aI7
aI12
aI8
aI10
aI2
aI8
aI8
aI12
aI2
aI6
aI6
aI8
aI8
aI3
aI11
aI3
aI6
aI8
aI3
aI11
aI8
aI2
aI3
aI8
aI8
aI2
aI1
aI5
aI8
aI11
aI6
aI11
aI8
aI8
aI2
aI5
aI8
aI11
aI4
aI6
aI6
aI5
aI6
aI8
aI8
aI2
aI8
aI11
aI2
aI6
aI11
aI10
aI11
aI5
aI5
aI7
aI11
aI2
aI1
aI2
aI12
aI7
aI10
aI7
aI8
aI3
aI8
aI10
aI8
aI8
aI11
aI8
aI4
aI2
aI2
aI3
aI8
aI11
aI3
aI5
aI8
aI8
aI6
aI8
aI2
aI12
aI3
aI8
aI8
aI8
aI11
aI8
aI10
aI8
aI3
aI8
aI4
aI4
aI6
aI8
aI3
aI10
aI10
aI8
aI11
aI12
aI2
aI8
aI10
aI4
aI8
aI10
aI1
aI11
aI8
aI10
aI11
aI11
aI11
aI2
aI6
aI11
aI8
aI8
aI5
aI11
aI12
aI5
aI4
aI11
aI8
aI8
aI2
aI11
aI4
aI5
aI8
aI7
aI2
aI10
aI8
aI8
aI8
aI3
aI8
aI12
aI3
aI4
aI8
aI10
aI12
aI8
aI11
aI3
aI5
aI4
aI11
aI8
aI8
aI8
aI4
aI4
aI8
aI3
aI8
aI4
aI2
aI2
aI7
aI2
aI7
aI1
aI8
aI12
aI4
aI5
aI8
aI8
aI8
aI8
aI10
aI4
aI6
aI8
aI10
aI10
aI10
aI2
aI4
aI4
aI11
aI10
aI12
aI5
aI12
aI8
aI4
aI8
aI8
aI11
aI6
aI2
aI8
aI12
aI8
aI8
aI6
aI12
aI8
aI12
aI3
aI11
aI7
aI8
aI11
aI1
aI4
aI4
aI2
aI11
aI8
aI3
aI8
aI3
aI12
aI10
aI5
aI11
aI11
aI8
aI6
aI2
aI6
aI2
aI12
aI8
aI11
aI4
aI6
aI10
aI11
aI11
aI8
aI8
aI5
aI11
aI0
aI8
aI11
aI11
aI2
aI11
aI11
aI12
aI8
aI11
aI3
aI12
aI6
aI10
aI12
aI11
aI8
aI8
aI2
aI5
aI12
aI6
aI11
aI6
aI8
aI10
aI8
aI8
aI8
aI12
aI3
aI1
aI11
aI11
aI0
aI2
aI8
aI6
aI5
aI4
aI8
aI3
aI6
aI8
aI1
aI12
aI10
aI8
aI8
aI10
aI8
aI2
aI8
aI7
aI10
aI7
aI7
aI11
aI6
aI8
aI11
aI10
aI6
aI8
aI8
aI11
aI12
aI5
aI2
aI12
aI11
aI1
aI11
aI2
aI8
aI10
aI3
aI5
aI12
aI5
aI8
aI2
aI8
aI11
aI12
aI11
aI10
aI11
aI2
aI4
aI12
aI11
aI8
aI2
aI7
aI12
aI8
aI8
aI8
aI0
aI2
aI12
aI10
aI8
aI8
aI12
aI11
aI10
aI8
aI8
aI8
aI5
aI11
aI8
aI8
aI5
aI8
aI11
aI8
aI5
aI12
aI11
aI3
aI6
aI7
aI3
aI12
aI7
aI10
aI12
aI6
aI12
aI11
aI10
aI8
aI11
aI11
aI11
aI8
aa.